LX51 LINKER/LOCATER V4.66.97.0                                                          02/23/2023  16:00:17  PAGE 1


LX51 LINKER/LOCATER V4.66.97.0, INVOKED BY:
C:\SILICONLABS\SIMPLICITYSTUDIO\V5\DEVELOPER\TOOLCHAINS\KEIL_8051\9.60\BIN\LX51.EXE ./src/InitDevice.OBJ, ./src/Interrup
>> ts.OBJ, ./src/SILABS_STARTUP.OBJ, ./src/command_handler.OBJ, ./src/hdlc_l.OBJ, ./src/lamp_main.OBJ, ./src/pwm.OBJ, ./
>> src/state_machine.OBJ, ./src/timer_4.OBJ TO LAMP_2.OMF.CRBUILD REMOVEUNUSED PRINT (.\lamp_2.m51) PAGEWIDTH (120) PAGE
>> LENGTH (65) CLASSES (ECODE (C:0X0-C:0X77FE), HCONST (C:0X0-C:0X77FE), XDATA (X:0X0-X:0X7FF), HDATA (X:0X0-X:0X7FF))


CPU MODE:     8051 MODE
MEMORY MODEL: SMALL


INPUT MODULES INCLUDED:
  ./src/InitDevice.OBJ (INITDEVICE)
         COMMENT TYPE 0: C51 V9.60.0.0
  ./src/Interrupts.OBJ (INTERRUPTS)
         COMMENT TYPE 0: C51 V9.60.0.0
  ./src/SILABS_STARTUP.OBJ (?C_STARTUP)
         COMMENT TYPE 0: AX51 V3.15.3.0
  ./src/command_handler.OBJ (COMMAND_HANDLER)
         COMMENT TYPE 0: C51 V9.60.0.0
  ./src/hdlc_l.OBJ (HDLC_L)
         COMMENT TYPE 0: C51 V9.60.0.0
  ./src/lamp_main.OBJ (LAMP_MAIN)
         COMMENT TYPE 0: C51 V9.60.0.0
  ./src/pwm.OBJ (PWM)
         COMMENT TYPE 0: C51 V9.60.0.0
  ./src/state_machine.OBJ (STATE_MACHINE)
         COMMENT TYPE 0: C51 V9.60.0.0
  ./src/timer_4.OBJ (TIMER_4)
         COMMENT TYPE 0: C51 V9.60.0.0
  C:\SILICONLABS\SIMPLICITYSTUDIO\V5\DEVELOPER\TOOLCHAINS\KEIL_8051\9.60\LIB\C51S.LIB (?C_INIT)
         COMMENT TYPE 1: A51 / ASM51 Assembler
  C:\SILICONLABS\SIMPLICITYSTUDIO\V5\DEVELOPER\TOOLCHAINS\KEIL_8051\9.60\LIB\C51S.LIB (?C?CLDPTR)
         COMMENT TYPE 1: A51 / ASM51 Assembler
  C:\SILICONLABS\SIMPLICITYSTUDIO\V5\DEVELOPER\TOOLCHAINS\KEIL_8051\9.60\LIB\C51S.LIB (?C?CLDOPTR)
         COMMENT TYPE 1: A51 / ASM51 Assembler
  C:\SILICONLABS\SIMPLICITYSTUDIO\V5\DEVELOPER\TOOLCHAINS\KEIL_8051\9.60\LIB\C51S.LIB (?C?CSTPTR)
         COMMENT TYPE 1: A51 / ASM51 Assembler
  C:\SILICONLABS\SIMPLICITYSTUDIO\V5\DEVELOPER\TOOLCHAINS\KEIL_8051\9.60\LIB\C51S.LIB (?C?CSTOPTR)
         COMMENT TYPE 1: A51 / ASM51 Assembler
  C:\SILICONLABS\SIMPLICITYSTUDIO\V5\DEVELOPER\TOOLCHAINS\KEIL_8051\9.60\LIB\C51S.LIB (?C?UIDIV)
         COMMENT TYPE 1: A51 / ASM51 Assembler
  C:\SILICONLABS\SIMPLICITYSTUDIO\V5\DEVELOPER\TOOLCHAINS\KEIL_8051\9.60\LIB\C51S.LIB (?C?ULCMP)
         COMMENT TYPE 1: A51 / ASM51 Assembler
  C:\SILICONLABS\SIMPLICITYSTUDIO\V5\DEVELOPER\TOOLCHAINS\KEIL_8051\9.60\LIB\C51S.LIB (?C?ICALL)
         COMMENT TYPE 1: A51 / ASM51 Assembler


ACTIVE MEMORY CLASSES OF MODULE:  LAMP_2.OMF.CRBUILD (INITDEVICE)

BASE        START       END         USED      MEMORY CLASS
==========================================================
C:000000H   C:000000H   C:0077FEH             ECODE
C:000000H   C:000000H   C:0077FEH             HCONST
X:000000H   X:000000H   X:0007FFH   000010H   XDATA
X:000000H   X:000000H   X:0007FFH             HDATA
C:000000H   C:000000H   C:00FFFFH   000814H   CODE
I:000000H   I:000000H   I:00007FH   000072H   DATA
I:000020H.0 I:000020H.0 I:00002FH.7 000000H.1 BIT
I:000000H   I:000000H   I:0000FFH   000001H   IDATA
C:000000H   C:000000H   C:00FFFFH   000200H   CONST


LX51 LINKER/LOCATER V4.66.97.0                                                        02/23/2023  16:00:17  PAGE 2


MEMORY MAP OF MODULE:  LAMP_2.OMF.CRBUILD (INITDEVICE)


START     STOP      LENGTH    ALIGN  RELOC    MEMORY CLASS   SEGMENT NAME
=========================================================================

* * * * * * * * * * *   D A T A   M E M O R Y   * * * * * * * * * * * * *
000000H   000007H   000008H   ---    AT..     DATA           "REG BANK 0"
000008H   000011H   00000AH   BYTE   UNIT     DATA           ?DT?COMMAND_HANDLER
000012H   000019H   000008H   BYTE   UNIT     DATA           ?DT?HDLC_L
00001AH   00001BH   000002H   BYTE   UNIT     DATA           ?DT?PWM
00001CH   00001CH   000001H   BYTE   UNIT     DATA           ?DT?INTERRUPTS
00001DH.0 00001FH.7 000003H.0 ---    ---      **GAP**
000020H.0 000020H.0 000000H.1 BIT    UNIT     BIT            _BIT_GROUP_
000020H.1 000020H   000000H.7 ---    ---      **GAP**
000021H   00004FH   00002FH   BYTE   UNIT     DATA           _DATA_GROUP_
000050H   000075H   000026H   BYTE   UNIT     DATA           ?DT?STATE_MACHINE
000076H   000076H   000001H   BYTE   UNIT     IDATA          ?STACK

* * * * * * * * * * *   C O D E   M E M O R Y   * * * * * * * * * * * * *
000000H   000002H   000003H   ---    OFFS..   CODE           ?CO?SILABS_STARTUP?3
000003H   00001FH   00001DH   BYTE   UNIT     CODE           ?PR?BUTTON?PWM
000020H   000020H   000001H   BYTE   UNIT     CODE           ?PR?EMPTY?STATE_MACHINE
000021H   000022H   000002H   ---    ---      **GAP**
000023H   000025H   000003H   BYTE   OFFS..   CODE           ?HDLC_L?00023
000026H   000029H   000004H   BYTE   UNIT     CODE           ?PR?INTERRUPT_0_ENTER_DEFAULTMODE_FROM_RESET?INITDEVICE
00002AH   00002AH   000001H   ---    ---      **GAP**
00002BH   00002DH   000003H   BYTE   OFFS..   CODE           ?INTERRUPTS?0002B
00002EH   000175H   000148H   BYTE   UNIT     CODE           ?PR?UART0_ISR?HDLC_L
000176H   00025BH   0000E6H   BYTE   UNIT     CODE           ?C?LIB_CODE
00025CH   0002E7H   00008CH   BYTE   UNIT     CODE           ?C_C51STARTUP
0002E8H   00035AH   000073H   BYTE   UNIT     CODE           ?PR?COMMAND_HANDLER?COMMAND_HANDLER
00035BH   0003B3H   000059H   BYTE   UNIT     CODE           ?PR?_STATE_MACHINE_RUN_ITERATION?STATE_MACHINE
0003B4H   00040BH   000058H   BYTE   UNIT     CODE           ?C_INITSEG
00040CH   00045FH   000054H   BYTE   UNIT     CODE           ?PR?_TIMER_4_DELAY_MS?TIMER_4
000460H   0004B1H   000052H   BYTE   UNIT     CODE           ?PR?_HDLC_L_CRC_COMPUTATION?HDLC_L
0004B2H   0004FFH   00004EH   BYTE   UNIT     CODE           ?PR?_HDLC_L_CHECK_PACKET_CRC_MISMATCH?HDLC_L
000500H   00054AH   00004BH   BYTE   UNIT     CODE           ?PR?WDT_0_ENTER_DEFAULTMODE_FROM_RESET?INITDEVICE
00054BH   000595H   00004BH   BYTE   UNIT     CODE           ?PR?_HDLC_L_SEND_INFO_PACKET?HDLC_L
000596H   0005DFH   00004AH   BYTE   UNIT     CODE           ?PR?_HDLC_L_LOAD_RECEIVED_INFO_BYTES?HDLC_L
0005E0H   000613H   000034H   BYTE   UNIT     CODE           ?PR?ENTER_DEFAULTMODE_FROM_RESET?INITDEVICE
000614H   000646H   000033H   BYTE   UNIT     CODE           ?PR?DESTUFF_IN_PACKET?HDLC_L
000647H   000675H   00002FH   BYTE   UNIT     CODE           ?PR?UPDATE_PWM?PWM
000676H   0006A3H   00002EH   BYTE   UNIT     CODE           ?PR?HDLC_L_PACK_AND_SEND_PACKET?HDLC_L
0006A4H   0006CDH   00002AH   BYTE   UNIT     CODE           ?PR?PWM_0_ENTER_DEFAULTMODE_FROM_RESET?INITDEVICE
0006CEH   0006F2H   000025H   BYTE   UNIT     CODE           ?PR?TIMER2_ISR?INTERRUPTS
0006F3H   00070DH   00001BH   BYTE   UNIT     CODE           ?PR?MAIN?LAMP_MAIN
00070EH   000727H   00001AH   BYTE   UNIT     CODE           ?PR?_PWM_SET?PWM
000728H   00073EH   000017H   BYTE   UNIT     CODE           ?PR?HDLC_L
00073FH   000754H   000016H   BYTE   UNIT     CODE           ?PR?TIMER16_4_ENTER_DEFAULTMODE_FROM_RESET?INITDEVICE
000755H   00076AH   000016H   BYTE   UNIT     CODE           ?PR?TIMER01_0_ENTER_DEFAULTMODE_FROM_RESET?INITDEVICE
00076BH   00077DH   000013H   BYTE   UNIT     CODE           ?PR?CLOCK_0_ENTER_DEFAULTMODE_FROM_RESET?INITDEVICE
00077EH   000790H   000013H   BYTE   UNIT     CODE           ?PR?TIMER16_3_ENTER_DEFAULTMODE_FROM_RESET?INITDEVICE
000791H   00079FH   00000FH   BYTE   UNIT     CODE           ?PR?INCREASE_LIGHTNESS?PWM
0007A0H   0007ACH   00000DH   BYTE   UNIT     CODE           ?PR?TIMER_SETUP_0_ENTER_DEFAULTMODE_FROM_RESET?INITDEVICE
0007ADH   0007B9H   00000DH   BYTE   UNIT     CODE           ?PR?TIMER16_2_ENTER_DEFAULTMODE_FROM_RESET?INITDEVICE
0007BAH   0007C4H   00000BH   BYTE   UNIT     CODE           ?PR?HDLC_L_TRANSMIT?HDLC_L
0007C5H   0007CFH   00000BH   BYTE   UNIT     CODE           ?PR?_HDLC_L_SEND_CONTROL_PACKET?HDLC_L
0007D0H   0007DAH   00000BH   BYTE   UNIT     CODE           ?PR?_SET_LIGHTNESS_COMMAND?PWM
0007DBH   0007E4H   00000AH   BYTE   UNIT     CODE           ?PR?PBCFG_0_ENTER_DEFAULTMODE_FROM_RESET?INITDEVICE
0007E5H   0007EDH   000009H   BYTE   UNIT     CODE           ?PR?_EMPTY_COMMAND?COMMAND_HANDLER
0007EEH   0007F4H   000007H   BYTE   UNIT     CODE           ?PR?PORTS_0_ENTER_DEFAULTMODE_FROM_RESET?INITDEVICE
LX51 LINKER/LOCATER V4.66.97.0                                                        02/23/2023  16:00:17  PAGE 3


0007F5H   0007FBH   000007H   BYTE   UNIT     CODE           ?PR?CIP51_0_ENTER_DEFAULTMODE_FROM_RESET?INITDEVICE
0007FCH   000802H   000007H   BYTE   UNIT     CODE           ?PR?PORTS_3_ENTER_DEFAULTMODE_FROM_RESET?INITDEVICE
000803H   000809H   000007H   BYTE   UNIT     CODE           ?PR?PORTS_1_ENTER_DEFAULTMODE_FROM_RESET?INITDEVICE
00080AH   000810H   000007H   BYTE   UNIT     CODE           ?PR?UART_0_ENTER_DEFAULTMODE_FROM_RESET?INITDEVICE
000811H   000816H   000006H   BYTE   UNIT     CODE           ?PR?FETCH_EVENT?STATE_MACHINE
000817H   000A16H   000200H   BYTE   UNIT     CONST          ?CO?PWM

* * * * * * * * * * *  X D A T A   M E M O R Y  * * * * * * * * * * * * *
000000H   00000FH   000010H   BYTE   UNIT     XDATA          ?XD?HDLC_L

* * * * * * * * *   R E M O V E D     S E G M E N T S   * * * * * * * *
   *DEL*:           000001H   BYTE   UNIT     CODE           ?PR?SILABS_STARTUP?LAMP_MAIN
   *DEL*:           000005H   BYTE   UNIT     CODE           ?PR?_SET_LIGHTNESS?PWM



OVERLAY MAP OF MODULE:   LAMP_2.OMF.CRBUILD (INITDEVICE)


FUNCTION/MODULE                                BIT_GROUP   DATA_GROUP 
--> CALLED FUNCTION/MODULE                    START  STOP  START  STOP
======================================================================
TIMER2_ISR/INTERRUPTS                         ----- -----  ----- -----

*** NEW ROOT ********************************

?C_C51STARTUP                                 ----- -----  ----- -----
  +--> MAIN/LAMP_MAIN
  +--> ?C_INITSEG

MAIN/LAMP_MAIN                                ----- -----  0021H 0021H
  +--> ENTER_DEFAULTMODE_FROM_RESET/INITDEVICE
  +--> FETCH_EVENT/STATE_MACHINE
  +--> _STATE_MACHINE_RUN_ITERATION/STATE_MACHINE
  +--> _TIMER_4_DELAY_MS/TIMER_4

ENTER_DEFAULTMODE_FROM_RESET/INITDEVICE       ----- -----  0022H 0022H
  +--> WDT_0_ENTER_DEFAULTMODE_FROM_RESET/INITDEVICE
  +--> PORTS_0_ENTER_DEFAULTMODE_FROM_RESET/INITDEVICE
  +--> PORTS_1_ENTER_DEFAULTMODE_FROM_RESET/INITDEVICE
  +--> PORTS_3_ENTER_DEFAULTMODE_FROM_RESET/INITDEVICE
  +--> PBCFG_0_ENTER_DEFAULTMODE_FROM_RESET/INITDEVICE
  +--> CLOCK_0_ENTER_DEFAULTMODE_FROM_RESET/INITDEVICE
  +--> CIP51_0_ENTER_DEFAULTMODE_FROM_RESET/INITDEVICE
  +--> TIMER01_0_ENTER_DEFAULTMODE_FROM_RESET/INITDEVICE
  +--> TIMER16_2_ENTER_DEFAULTMODE_FROM_RESET/INITDEVICE
  +--> TIMER16_3_ENTER_DEFAULTMODE_FROM_RESET/INITDEVICE
  +--> TIMER16_4_ENTER_DEFAULTMODE_FROM_RESET/INITDEVICE
  +--> TIMER_SETUP_0_ENTER_DEFAULTMODE_FROM_RESET/INITDEVICE
  +--> PWM_0_ENTER_DEFAULTMODE_FROM_RESET/INITDEVICE
  +--> UART_0_ENTER_DEFAULTMODE_FROM_RESET/INITDEVICE
  +--> INTERRUPT_0_ENTER_DEFAULTMODE_FROM_RESET/INITDEVICE

WDT_0_ENTER_DEFAULTMODE_FROM_RESET/INITD+     20H.0 20H.0  0023H 0026H
... EVICE

PORTS_0_ENTER_DEFAULTMODE_FROM_RESET/INI+     ----- -----  ----- -----
... TDEVICE

PORTS_1_ENTER_DEFAULTMODE_FROM_RESET/INI+     ----- -----  ----- -----
... TDEVICE

LX51 LINKER/LOCATER V4.66.97.0                                                        02/23/2023  16:00:17  PAGE 4


PORTS_3_ENTER_DEFAULTMODE_FROM_RESET/INI+     ----- -----  ----- -----
... TDEVICE

PBCFG_0_ENTER_DEFAULTMODE_FROM_RESET/INI+     ----- -----  ----- -----
... TDEVICE

CLOCK_0_ENTER_DEFAULTMODE_FROM_RESET/INI+     ----- -----  ----- -----
... TDEVICE

CIP51_0_ENTER_DEFAULTMODE_FROM_RESET/INI+     ----- -----  ----- -----
... TDEVICE

TIMER01_0_ENTER_DEFAULTMODE_FROM_RESET/I+     ----- -----  ----- -----
... NITDEVICE

TIMER16_2_ENTER_DEFAULTMODE_FROM_RESET/I+     ----- -----  ----- -----
... NITDEVICE

TIMER16_3_ENTER_DEFAULTMODE_FROM_RESET/I+     ----- -----  ----- -----
... NITDEVICE

TIMER16_4_ENTER_DEFAULTMODE_FROM_RESET/I+     ----- -----  ----- -----
... NITDEVICE

TIMER_SETUP_0_ENTER_DEFAULTMODE_FROM_RES+     ----- -----  ----- -----
... ET/INITDEVICE

PWM_0_ENTER_DEFAULTMODE_FROM_RESET/INITD+     ----- -----  ----- -----
... EVICE

UART_0_ENTER_DEFAULTMODE_FROM_RESET/INIT+     ----- -----  ----- -----
... DEVICE

INTERRUPT_0_ENTER_DEFAULTMODE_FROM_RESET+     ----- -----  ----- -----
... /INITDEVICE

FETCH_EVENT/STATE_MACHINE                     ----- -----  ----- -----

_STATE_MACHINE_RUN_ITERATION/STATE_MACHI+     ----- -----  0022H 0024H
... NE

_TIMER_4_DELAY_MS/TIMER_4                     ----- -----  0022H 002BH

?C_INITSEG                                    ----- -----  ----- -----
  +--> _EMPTY_COMMAND/COMMAND_HANDLER
  +--> _SET_LIGHTNESS_COMMAND/PWM
  +--> EMPTY/STATE_MACHINE
  +--> INCREASE_LIGHTNESS/PWM
  +--> COMMAND_HANDLER/COMMAND_HANDLER
  +--> BUTTON/PWM

_EMPTY_COMMAND/COMMAND_HANDLER                ----- -----  0021H 0023H

_SET_LIGHTNESS_COMMAND/PWM                    ----- -----  ----- -----
  +--> UPDATE_PWM/PWM

UPDATE_PWM/PWM                                ----- -----  ----- -----
  +--> _PWM_SET/PWM

_PWM_SET/PWM                                  ----- -----  ----- -----

EMPTY/STATE_MACHINE                           ----- -----  ----- -----
LX51 LINKER/LOCATER V4.66.97.0                                                        02/23/2023  16:00:17  PAGE 5



INCREASE_LIGHTNESS/PWM                        ----- -----  ----- -----

COMMAND_HANDLER/COMMAND_HANDLER               ----- -----  0021H 0036H
  +--> _HDLC_L_LOAD_RECEIVED_INFO_BYTES/HDLC_L
  +--> _HDLC_L_SEND_INFO_PACKET/HDLC_L

_HDLC_L_LOAD_RECEIVED_INFO_BYTES/HDLC_L       ----- -----  0037H 003CH

_HDLC_L_SEND_INFO_PACKET/HDLC_L               ----- -----  0037H 003AH
  +--> _HDLC_L_SEND_CONTROL_PACKET/HDLC_L
  +--> HDLC_L_PACK_AND_SEND_PACKET/HDLC_L

_HDLC_L_SEND_CONTROL_PACKET/HDLC_L            ----- -----  ----- -----
  +--> HDLC_L_PACK_AND_SEND_PACKET/HDLC_L

HDLC_L_PACK_AND_SEND_PACKET/HDLC_L            ----- -----  ----- -----
  +--> _HDLC_L_CRC_COMPUTATION/HDLC_L
  +--> HDLC_L_TRANSMIT/HDLC_L

_HDLC_L_CRC_COMPUTATION/HDLC_L                ----- -----  004AH 004FH
  +--> HDLC_L

HDLC_L                                        ----- -----  ----- -----

HDLC_L_TRANSMIT/HDLC_L                        ----- -----  ----- -----

BUTTON/PWM                                    ----- -----  ----- -----
  +--> UPDATE_PWM/PWM

*** NEW ROOT ********************************

UART0_ISR/HDLC_L                              ----- -----  0041H 0043H
  +--> _HDLC_L_SEND_CONTROL_PACKET/HDLC_L
  +--> DESTUFF_IN_PACKET/HDLC_L
  +--> _HDLC_L_CHECK_PACKET_CRC_MISMATCH/HDLC_L
  +--> HDLC_L_TRANSMIT/HDLC_L
  +--> HDLC_L

DESTUFF_IN_PACKET/HDLC_L                      ----- -----  ----- -----
  +--> HDLC_L

_HDLC_L_CHECK_PACKET_CRC_MISMATCH/HDLC_L      ----- -----  0044H 0049H
  +--> _HDLC_L_CRC_COMPUTATION/HDLC_L



PUBLIC SYMBOLS OF MODULE:  LAMP_2.OMF.CRBUILD (INITDEVICE)


      VALUE       CLASS    TYPE      PUBLIC SYMBOL NAME
      =================================================
      00000037H   DATA     BYTE      ?_hdlc_l_load_received_info_bytes?BYTE
      0100018FH   CODE     ---       ?C?CLDOPTR
      01000176H   CODE     ---       ?C?CLDPTR
      00000000H   NUMBER   ---       ?C?CODESEG
      010001CEH   CODE     ---       ?C?CSTOPTR
      010001BCH   CODE     ---       ?C?CSTPTR
      01000256H   CODE     ---       ?C?ICALL
      0100025AH   CODE     ---       ?C?ICALL2
      010001F0H   CODE     ---       ?C?UIDIV
      01000245H   CODE     ---       ?C?ULCMP
LX51 LINKER/LOCATER V4.66.97.0                                                        02/23/2023  16:00:17  PAGE 6


      00000000H   NUMBER   ---       ?C?XDATASEG
      010002A3H   CODE     ---       ?C_START
      01000000H   CODE     NEAR LAB  ?C_STARTUP
      010007E5H   CODE     ---       _empty_command
      010004B2H   CODE     ---       _hdlc_l_check_packet_crc_mismatch
      01000460H   CODE     ---       _hdlc_l_crc_computation
      01000596H   CODE     ---       _hdlc_l_load_received_info_bytes
      010007C5H   CODE     ---       _hdlc_l_send_control_packet
      0100054BH   CODE     ---       _hdlc_l_send_info_packet
      0100070EH   CODE     ---       _pwm_set
*DEL*:00000000H   CODE     ---       _set_lightness
      010007D0H   CODE     ---       _set_lightness_command
      0100035BH   CODE     ---       _state_machine_run_iteration
      0100040CH   CODE     ---       _timer_4_delay_ms
*SFR* 000000E0H   DATA     BYTE      ACC
*SFR* 000000E0H.0 DATA     BIT       ACC_ACC0
*SFR* 000000E0H.1 DATA     BIT       ACC_ACC1
*SFR* 000000E0H.2 DATA     BIT       ACC_ACC2
*SFR* 000000E0H.3 DATA     BIT       ACC_ACC3
*SFR* 000000E0H.4 DATA     BIT       ACC_ACC4
*SFR* 000000E0H.5 DATA     BIT       ACC_ACC5
*SFR* 000000E0H.6 DATA     BIT       ACC_ACC6
*SFR* 000000E0H.7 DATA     BIT       ACC_ACC7
*SFR* 000000BDH   DATA     WORD      ADC0
*SFR* 000000B5H   DATA     WORD      ADC0ASA
*SFR* 000000B6H   DATA     BYTE      ADC0ASAH
*SFR* 000000B5H   DATA     BYTE      ADC0ASAL
*SFR* 000000A1H   DATA     BYTE      ADC0ASCF
*SFR* 000000C7H   DATA     BYTE      ADC0ASCT
*SFR* 000000B9H   DATA     BYTE      ADC0CF1
*SFR* 000000DFH   DATA     BYTE      ADC0CF2
*SFR* 000000E8H   DATA     BYTE      ADC0CN0
*SFR* 000000E8H.4 DATA     BIT       ADC0CN0_ADBUSY
*SFR* 000000E8H.7 DATA     BIT       ADC0CN0_ADEN
*SFR* 000000E8H.1 DATA     BIT       ADC0CN0_ADGN0
*SFR* 000000E8H.2 DATA     BIT       ADC0CN0_ADGN1
*SFR* 000000E8H.5 DATA     BIT       ADC0CN0_ADINT
*SFR* 000000E8H.3 DATA     BIT       ADC0CN0_ADWINT
*SFR* 000000E8H.6 DATA     BIT       ADC0CN0_IPOEN
*SFR* 000000E8H.0 DATA     BIT       ADC0CN0_TEMPE
*SFR* 000000B2H   DATA     BYTE      ADC0CN1
*SFR* 000000B3H   DATA     BYTE      ADC0CN2
*SFR* 000000C3H   DATA     WORD      ADC0GT
*SFR* 000000C4H   DATA     BYTE      ADC0GTH
*SFR* 000000C3H   DATA     BYTE      ADC0GTL
*SFR* 000000BEH   DATA     BYTE      ADC0H
*SFR* 000000BDH   DATA     BYTE      ADC0L
*SFR* 000000C5H   DATA     WORD      ADC0LT
*SFR* 000000C6H   DATA     BYTE      ADC0LTH
*SFR* 000000C5H   DATA     BYTE      ADC0LTL
*SFR* 000000BBH   DATA     BYTE      ADC0MX
*SFR* 000000F0H   DATA     BYTE      B
*SFR* 000000F0H.0 DATA     BIT       B_B0
*SFR* 000000F0H.1 DATA     BIT       B_B1
*SFR* 000000F0H.2 DATA     BIT       B_B2
*SFR* 000000F0H.3 DATA     BIT       B_B3
*SFR* 000000F0H.4 DATA     BIT       B_B4
*SFR* 000000F0H.5 DATA     BIT       B_B5
*SFR* 000000F0H.6 DATA     BIT       B_B6
*SFR* 000000F0H.7 DATA     BIT       B_B7
      01000003H   CODE     ---       button
      010007F5H   CODE     ---       CIP51_0_enter_DefaultMode_from_RESET
LX51 LINKER/LOCATER V4.66.97.0                                                        02/23/2023  16:00:17  PAGE 7


*SFR* 0000008EH   DATA     BYTE      CKCON0
*SFR* 000000A6H   DATA     BYTE      CKCON1
*SFR* 000000C6H   DATA     BYTE      CLEN0
*SFR* 000000C7H   DATA     BYTE      CLIE0
*SFR* 000000E8H   DATA     BYTE      CLIF0
*SFR* 000000E8H.0 DATA     BIT       CLIF0_C0FIF
*SFR* 000000E8H.1 DATA     BIT       CLIF0_C0RIF
*SFR* 000000E8H.2 DATA     BIT       CLIF0_C1FIF
*SFR* 000000E8H.3 DATA     BIT       CLIF0_C1RIF
*SFR* 000000E8H.4 DATA     BIT       CLIF0_C2FIF
*SFR* 000000E8H.5 DATA     BIT       CLIF0_C2RIF
*SFR* 000000E8H.6 DATA     BIT       CLIF0_C3FIF
*SFR* 000000E8H.7 DATA     BIT       CLIF0_C3RIF
*SFR* 000000AFH   DATA     BYTE      CLKGRP0
*SFR* 000000A9H   DATA     BYTE      CLKSEL
      0100076BH   CODE     ---       CLOCK_0_enter_DefaultMode_from_RESET
*SFR* 000000D1H   DATA     BYTE      CLOUT0
*SFR* 000000B1H   DATA     BYTE      CLU0CF
*SFR* 000000AFH   DATA     BYTE      CLU0FN
*SFR* 00000084H   DATA     BYTE      CLU0MX
*SFR* 000000B3H   DATA     BYTE      CLU1CF
*SFR* 000000B2H   DATA     BYTE      CLU1FN
*SFR* 00000085H   DATA     BYTE      CLU1MX
*SFR* 000000B6H   DATA     BYTE      CLU2CF
*SFR* 000000B5H   DATA     BYTE      CLU2FN
*SFR* 00000091H   DATA     BYTE      CLU2MX
*SFR* 000000BFH   DATA     BYTE      CLU3CF
*SFR* 000000BEH   DATA     BYTE      CLU3FN
*SFR* 000000AEH   DATA     BYTE      CLU3MX
*SFR* 0000009BH   DATA     BYTE      CMP0CN0
*SFR* 00000099H   DATA     BYTE      CMP0CN1
*SFR* 0000009DH   DATA     BYTE      CMP0MD
*SFR* 0000009FH   DATA     BYTE      CMP0MX
*SFR* 000000BFH   DATA     BYTE      CMP1CN0
*SFR* 000000ACH   DATA     BYTE      CMP1CN1
*SFR* 000000ABH   DATA     BYTE      CMP1MD
*SFR* 000000AAH   DATA     BYTE      CMP1MX
      010002E8H   CODE     ---       command_handler
      00000008H   DATA     ---       command_table
*SFR* 000000A4H   DATA     BYTE      CP0CN
*SFR* 000000CEH   DATA     BYTE      CRC0CN0
*SFR* 00000086H   DATA     BYTE      CRC0CN1
*SFR* 000000D3H   DATA     BYTE      CRC0CNT
*SFR* 000000CBH   DATA     BYTE      CRC0DAT
*SFR* 000000CFH   DATA     BYTE      CRC0FLIP
*SFR* 000000CAH   DATA     BYTE      CRC0IN
*SFR* 000000D2H   DATA     BYTE      CRC0ST
      00000051H   DATA     BYTE      current_event
      0000001BH   DATA     BYTE      current_lightness
      00000050H   DATA     BYTE      current_state
*SFR* 0000008AH   DATA     BYTE      DAC0ALT
*SFR* 00000091H   DATA     BYTE      DAC0CF0
*SFR* 00000092H   DATA     BYTE      DAC0CF1
*SFR* 00000085H   DATA     BYTE      DAC0H
*SFR* 00000084H   DATA     BYTE      DAC0L
*SFR* 000000ADH   DATA     BYTE      DERIVID
      01000614H   CODE     ---       destuff_in_packet
*SFR* 000000B5H   DATA     BYTE      DEVICEID
*SFR* 00000082H   DATA     WORD      DP
*SFR* 00000083H   DATA     BYTE      DPH
*SFR* 00000082H   DATA     BYTE      DPL
      0000001AH   DATA     BYTE      dummy
LX51 LINKER/LOCATER V4.66.97.0                                                        02/23/2023  16:00:17  PAGE 8


*SFR* 000000E6H   DATA     BYTE      EIE1
*SFR* 000000F3H   DATA     BYTE      EIE2
*SFR* 000000BBH   DATA     BYTE      EIP1
*SFR* 000000EEH   DATA     BYTE      EIP1H
*SFR* 000000EDH   DATA     BYTE      EIP2
*SFR* 000000F6H   DATA     BYTE      EIP2H
*SFR* 000000E7H   DATA     BYTE      EMI0CN
      01000020H   CODE     ---       empty
      00000017H   DATA     BYTE      end_flag_sent
      010005E0H   CODE     ---       enter_DefaultMode_from_RESET
      01000811H   CODE     ---       fetch_event
*SFR* 000000B7H   DATA     BYTE      FLKEY
      01000676H   CODE     ---       hdlc_l_pack_and_send_packet
      010007BAH   CODE     ---       hdlc_l_transmit
*SFR* 000000D6H   DATA     BYTE      HFO0CAL
*SFR* 000000EFH   DATA     BYTE      HFO0CN
*SFR* 000000CCH   DATA     BYTE      HFO0TRIM0
*SFR* 000000A8H   DATA     BYTE      IE
*SFR* 000000A8H.7 DATA     BIT       IE_EA
*SFR* 000000A8H.4 DATA     BIT       IE_ES0
*SFR* 000000A8H.6 DATA     BIT       IE_ESPI0
*SFR* 000000A8H.1 DATA     BIT       IE_ET0
*SFR* 000000A8H.3 DATA     BIT       IE_ET1
*SFR* 000000A8H.5 DATA     BIT       IE_ET2
*SFR* 000000A8H.0 DATA     BIT       IE_EX0
*SFR* 000000A8H.2 DATA     BIT       IE_EX1
      02000000H   XDATA    ---       in_packet
      00000012H   DATA     BYTE      in_packet_index
      00000018H   DATA     BYTE      in_packet_size
      01000791H   CODE     ---       increase_lightness
      01000026H   CODE     ---       INTERRUPT_0_enter_DefaultMode_from_RESET
*SFR* 000000B8H   DATA     BYTE      IP
*SFR* 000000B8H.4 DATA     BIT       IP_PS0
*SFR* 000000B8H.6 DATA     BIT       IP_PSPI0
*SFR* 000000B8H.1 DATA     BIT       IP_PT0
*SFR* 000000B8H.3 DATA     BIT       IP_PT1
*SFR* 000000B8H.5 DATA     BIT       IP_PT2
*SFR* 000000B8H.0 DATA     BIT       IP_PX0
*SFR* 000000B8H.2 DATA     BIT       IP_PX1
*SFR* 000000F2H   DATA     BYTE      IPH
*SFR* 000000E4H   DATA     BYTE      IT01CF
*SFR* 000000B1H   DATA     BYTE      LFO0CN
      010006F3H   CODE     ---       main
      02000008H   XDATA    ---       out_packet
      00000013H   DATA     BYTE      out_packet_index
      00000019H   DATA     BYTE      out_packet_size
*SFR* 00000080H   DATA     BYTE      P0
*SFR* 00000080H.0 DATA     BIT       P0_B0
*SFR* 00000080H.1 DATA     BIT       P0_B1
*SFR* 00000080H.2 DATA     BIT       P0_B2
*SFR* 00000080H.3 DATA     BIT       P0_B3
*SFR* 00000080H.4 DATA     BIT       P0_B4
*SFR* 00000080H.5 DATA     BIT       P0_B5
*SFR* 00000080H.6 DATA     BIT       P0_B6
*SFR* 00000080H.7 DATA     BIT       P0_B7
*SFR* 000000FEH   DATA     BYTE      P0MASK
*SFR* 000000FDH   DATA     BYTE      P0MAT
*SFR* 000000F1H   DATA     BYTE      P0MDIN
*SFR* 000000A4H   DATA     BYTE      P0MDOUT
*SFR* 000000D4H   DATA     BYTE      P0SKIP
*SFR* 00000090H   DATA     BYTE      P1
*SFR* 00000090H.0 DATA     BIT       P1_B0
LX51 LINKER/LOCATER V4.66.97.0                                                        02/23/2023  16:00:17  PAGE 9


*SFR* 00000090H.1 DATA     BIT       P1_B1
*SFR* 00000090H.2 DATA     BIT       P1_B2
*SFR* 00000090H.3 DATA     BIT       P1_B3
*SFR* 00000090H.4 DATA     BIT       P1_B4
*SFR* 00000090H.5 DATA     BIT       P1_B5
*SFR* 00000090H.6 DATA     BIT       P1_B6
*SFR* 00000090H.7 DATA     BIT       P1_B7
*SFR* 000000EEH   DATA     BYTE      P1MASK
*SFR* 000000EDH   DATA     BYTE      P1MAT
*SFR* 000000F2H   DATA     BYTE      P1MDIN
*SFR* 000000A5H   DATA     BYTE      P1MDOUT
*SFR* 000000D5H   DATA     BYTE      P1SKIP
*SFR* 000000A0H   DATA     BYTE      P2
*SFR* 000000A0H.0 DATA     BIT       P2_B0
*SFR* 000000A0H.1 DATA     BIT       P2_B1
*SFR* 000000A0H.2 DATA     BIT       P2_B2
*SFR* 000000A0H.3 DATA     BIT       P2_B3
*SFR* 000000A0H.4 DATA     BIT       P2_B4
*SFR* 000000A0H.5 DATA     BIT       P2_B5
*SFR* 000000A0H.6 DATA     BIT       P2_B6
*SFR* 000000A0H.7 DATA     BIT       P2_B7
*SFR* 000000FCH   DATA     BYTE      P2MASK
*SFR* 000000FBH   DATA     BYTE      P2MAT
*SFR* 000000F3H   DATA     BYTE      P2MDIN
*SFR* 000000A6H   DATA     BYTE      P2MDOUT
*SFR* 000000CCH   DATA     BYTE      P2SKIP
*SFR* 000000B0H   DATA     BYTE      P3
*SFR* 000000B0H.0 DATA     BIT       P3_B0
*SFR* 000000B0H.1 DATA     BIT       P3_B1
*SFR* 000000B0H.2 DATA     BIT       P3_B2
*SFR* 000000B0H.3 DATA     BIT       P3_B3
*SFR* 000000B0H.4 DATA     BIT       P3_B4
*SFR* 000000B0H.5 DATA     BIT       P3_B5
*SFR* 000000B0H.6 DATA     BIT       P3_B6
*SFR* 000000B0H.7 DATA     BIT       P3_B7
*SFR* 000000F4H   DATA     BYTE      P3MDIN
*SFR* 0000009CH   DATA     BYTE      P3MDOUT
      010007DBH   CODE     ---       PBCFG_0_enter_DefaultMode_from_RESET
*SFR* 000000F9H   DATA     WORD      PCA0
*SFR* 0000009EH   DATA     BYTE      PCA0CENT
*SFR* 0000009CH   DATA     BYTE      PCA0CLR
*SFR* 000000D8H   DATA     BYTE      PCA0CN0
*SFR* 000000D8H.0 DATA     BIT       PCA0CN0_CCF0
*SFR* 000000D8H.1 DATA     BIT       PCA0CN0_CCF1
*SFR* 000000D8H.2 DATA     BIT       PCA0CN0_CCF2
*SFR* 000000D8H.7 DATA     BIT       PCA0CN0_CF
*SFR* 000000D8H.6 DATA     BIT       PCA0CN0_CR
*SFR* 000000FBH   DATA     WORD      PCA0CP0
*SFR* 000000E9H   DATA     WORD      PCA0CP1
*SFR* 000000EBH   DATA     WORD      PCA0CP2
*SFR* 000000FCH   DATA     BYTE      PCA0CPH0
*SFR* 000000EAH   DATA     BYTE      PCA0CPH1
*SFR* 000000ECH   DATA     BYTE      PCA0CPH2
*SFR* 000000FBH   DATA     BYTE      PCA0CPL0
*SFR* 000000E9H   DATA     BYTE      PCA0CPL1
*SFR* 000000EBH   DATA     BYTE      PCA0CPL2
*SFR* 000000DAH   DATA     BYTE      PCA0CPM0
*SFR* 000000DBH   DATA     BYTE      PCA0CPM1
*SFR* 000000DCH   DATA     BYTE      PCA0CPM2
*SFR* 000000FAH   DATA     BYTE      PCA0H
*SFR* 000000F9H   DATA     BYTE      PCA0L
*SFR* 000000D9H   DATA     BYTE      PCA0MD
LX51 LINKER/LOCATER V4.66.97.0                                                        02/23/2023  16:00:17  PAGE 10


*SFR* 00000096H   DATA     BYTE      PCA0POL
*SFR* 000000F7H   DATA     BYTE      PCA0PWM
*SFR* 00000087H   DATA     BYTE      PCON0
*SFR* 000000CDH   DATA     BYTE      PCON1
*SFR* 000000C1H   DATA     BYTE      PFE0CN
      010007EEH   CODE     ---       PORTS_0_enter_DefaultMode_from_RESET
      01000803H   CODE     ---       PORTS_1_enter_DefaultMode_from_RESET
      010007FCH   CODE     ---       PORTS_3_enter_DefaultMode_from_RESET
*SFR* 000000A0H   DATA     BYTE      PPAGE_SFR
      0000001CH   DATA     BYTE      previous_pressed
*SFR* 000000F6H   DATA     BYTE      PRTDRV
*SFR* 0000008FH   DATA     BYTE      PSCTL
*SFR* 000000AAH   DATA     BYTE      PSTAT0
*SFR* 000000D0H   DATA     BYTE      PSW
*SFR* 000000D0H.6 DATA     BIT       PSW_AC
*SFR* 000000D0H.7 DATA     BIT       PSW_CY
*SFR* 000000D0H.5 DATA     BIT       PSW_F0
*SFR* 000000D0H.1 DATA     BIT       PSW_F1
*SFR* 000000D0H.2 DATA     BIT       PSW_OV
*SFR* 000000D0H.0 DATA     BIT       PSW_PARITY
*SFR* 000000D0H.3 DATA     BIT       PSW_RS0
*SFR* 000000D0H.4 DATA     BIT       PSW_RS1
*SFR* 000000C3H   DATA     WORD      PWM
      010006A4H   CODE     ---       PWM_0_enter_DefaultMode_from_RESET
      01000817H   CONST    ---       pwm_from_lightness
*SFR* 000000C2H   DATA     BYTE      PWMCFG0
*SFR* 000000C9H   DATA     BYTE      PWMCFG1
*SFR* 000000D1H   DATA     BYTE      PWMCFG2
*SFR* 000000DFH   DATA     BYTE      PWMCFG3
*SFR* 000000E3H   DATA     BYTE      PWMCKDIV
*SFR* 00000099H   DATA     WORD      PWMCP0
*SFR* 000000B5H   DATA     WORD      PWMCP1
*SFR* 000000BDH   DATA     WORD      PWMCP2
*SFR* 0000009AH   DATA     BYTE      PWMCPH0
*SFR* 000000B6H   DATA     BYTE      PWMCPH1
*SFR* 000000BEH   DATA     BYTE      PWMCPH2
*SFR* 00000099H   DATA     BYTE      PWMCPL0
*SFR* 000000B5H   DATA     BYTE      PWMCPL1
*SFR* 000000BDH   DATA     BYTE      PWMCPL2
*SFR* 000000ABH   DATA     WORD      PWMCPUD0
*SFR* 000000B2H   DATA     WORD      PWMCPUD1
*SFR* 000000B9H   DATA     WORD      PWMCPUD2
*SFR* 000000ACH   DATA     BYTE      PWMCPUDH0
*SFR* 000000B3H   DATA     BYTE      PWMCPUDH1
*SFR* 000000BAH   DATA     BYTE      PWMCPUDH2
*SFR* 000000ABH   DATA     BYTE      PWMCPUDL0
*SFR* 000000B2H   DATA     BYTE      PWMCPUDL1
*SFR* 000000B9H   DATA     BYTE      PWMCPUDL2
*SFR* 000000E2H   DATA     BYTE      PWMDTINLIM
*SFR* 000000E1H   DATA     BYTE      PWMDTIPLIM
*SFR* 000000C4H   DATA     BYTE      PWMH
*SFR* 0000009FH   DATA     BYTE      PWMIE
*SFR* 0000009DH   DATA     BYTE      PWMIF
*SFR* 000000C3H   DATA     BYTE      PWML
*SFR* 000000C5H   DATA     WORD      PWMLIM
*SFR* 000000C6H   DATA     BYTE      PWMLIMH
*SFR* 000000C5H   DATA     BYTE      PWMLIML
*SFR* 0000009BH   DATA     BYTE      PWMSTATUS
      00000014H   DATA     BYTE      receive_overflow_flag
*SFR* 000000D1H   DATA     BYTE      REF0CN
*SFR* 000000C9H   DATA     BYTE      REG0CN
*SFR* 000000B6H   DATA     BYTE      REVID
LX51 LINKER/LOCATER V4.66.97.0                                                        02/23/2023  16:00:17  PAGE 11


*SFR* 000000EFH   DATA     BYTE      RSTSRC
*SFR* 00000094H   DATA     BYTE      SBCON1
*SFR* 00000096H   DATA     BYTE      SBRLH1
*SFR* 00000095H   DATA     BYTE      SBRLL1
*SFR* 00000099H   DATA     BYTE      SBUF0
*SFR* 00000092H   DATA     BYTE      SBUF1
*SFR* 00000098H   DATA     BYTE      SCON0
*SFR* 00000098H.5 DATA     BIT       SCON0_MCE
*SFR* 00000098H.2 DATA     BIT       SCON0_RB8
*SFR* 00000098H.4 DATA     BIT       SCON0_REN
*SFR* 00000098H.0 DATA     BIT       SCON0_RI
*SFR* 00000098H.7 DATA     BIT       SCON0_SMODE
*SFR* 00000098H.3 DATA     BIT       SCON0_TB8
*SFR* 00000098H.1 DATA     BIT       SCON0_TI
*SFR* 000000C8H   DATA     BYTE      SCON1
*SFR* 000000C8H.7 DATA     BIT       SCON1_OVR
*SFR* 000000C8H.6 DATA     BIT       SCON1_PERR
*SFR* 000000C8H.2 DATA     BIT       SCON1_RBX
*SFR* 000000C8H.4 DATA     BIT       SCON1_REN
*SFR* 000000C8H.0 DATA     BIT       SCON1_RI
*SFR* 000000C8H.3 DATA     BIT       SCON1_TBX
*SFR* 000000C8H.1 DATA     BIT       SCON1_TI
      00000015H   DATA     BYTE      sending_byte_to_be_stuffed
*SFR* 000000A7H   DATA     BYTE      SFRPAGE
*SFR* 000000BCH   DATA     BYTE      SFRPGCN
*SFR* 000000D7H   DATA     BYTE      SFRSTACK
*DEL*:00000000H   CODE     ---       SiLabs_Startup
*SFR* 000000D6H   DATA     BYTE      SMB0ADM
*SFR* 000000D7H   DATA     BYTE      SMB0ADR
*SFR* 000000C1H   DATA     BYTE      SMB0CF
*SFR* 000000C0H   DATA     BYTE      SMB0CN0
*SFR* 000000C0H.1 DATA     BIT       SMB0CN0_ACK
*SFR* 000000C0H.3 DATA     BIT       SMB0CN0_ACKRQ
*SFR* 000000C0H.2 DATA     BIT       SMB0CN0_ARBLOST
*SFR* 000000C0H.7 DATA     BIT       SMB0CN0_MASTER
*SFR* 000000C0H.0 DATA     BIT       SMB0CN0_SI
*SFR* 000000C0H.5 DATA     BIT       SMB0CN0_STA
*SFR* 000000C0H.4 DATA     BIT       SMB0CN0_STO
*SFR* 000000C0H.6 DATA     BIT       SMB0CN0_TXMODE
*SFR* 000000C2H   DATA     BYTE      SMB0DAT
*SFR* 000000C3H   DATA     BYTE      SMB0FCN0
*SFR* 000000C4H   DATA     BYTE      SMB0FCN1
*SFR* 000000EFH   DATA     BYTE      SMB0FCT
*SFR* 000000C5H   DATA     BYTE      SMB0RXLN
*SFR* 000000ACH   DATA     BYTE      SMB0TC
*SFR* 000000FFH   DATA     BYTE      SMB1ADM
*SFR* 000000BDH   DATA     BYTE      SMB1ADR
*SFR* 000000BAH   DATA     BYTE      SMB1CF
*SFR* 00000088H   DATA     BYTE      SMB1CN0
*SFR* 00000088H.1 DATA     BIT       SMB1CN0_ACK
*SFR* 00000088H.3 DATA     BIT       SMB1CN0_ACKRQ
*SFR* 00000088H.2 DATA     BIT       SMB1CN0_ARBLOST
*SFR* 00000088H.7 DATA     BIT       SMB1CN0_MASTER
*SFR* 00000088H.0 DATA     BIT       SMB1CN0_SI
*SFR* 00000088H.5 DATA     BIT       SMB1CN0_STA
*SFR* 00000088H.4 DATA     BIT       SMB1CN0_STO
*SFR* 00000088H.6 DATA     BIT       SMB1CN0_TXMODE
*SFR* 000000BBH   DATA     BYTE      SMB1DAT
*SFR* 000000ADH   DATA     BYTE      SMB1FCN0
*SFR* 000000ABH   DATA     BYTE      SMB1FCN1
*SFR* 000000F5H   DATA     BYTE      SMB1FCT
*SFR* 000000BCH   DATA     BYTE      SMB1RXLN
LX51 LINKER/LOCATER V4.66.97.0                                                        02/23/2023  16:00:17  PAGE 12


*SFR* 000000B9H   DATA     BYTE      SMB1TC
*SFR* 00000093H   DATA     BYTE      SMOD1
*SFR* 00000081H   DATA     BYTE      SP
*SFR* 000000A1H   DATA     BYTE      SPI0CFG
*SFR* 000000A2H   DATA     BYTE      SPI0CKR
*SFR* 000000F8H   DATA     BYTE      SPI0CN0
*SFR* 000000F8H.5 DATA     BIT       SPI0CN0_MODF
*SFR* 000000F8H.2 DATA     BIT       SPI0CN0_NSSMD0
*SFR* 000000F8H.3 DATA     BIT       SPI0CN0_NSSMD1
*SFR* 000000F8H.4 DATA     BIT       SPI0CN0_RXOVRN
*SFR* 000000F8H.0 DATA     BIT       SPI0CN0_SPIEN
*SFR* 000000F8H.7 DATA     BIT       SPI0CN0_SPIF
*SFR* 000000F8H.1 DATA     BIT       SPI0CN0_TXNF
*SFR* 000000F8H.6 DATA     BIT       SPI0CN0_WCOL
*SFR* 000000A3H   DATA     BYTE      SPI0DAT
*SFR* 0000009AH   DATA     BYTE      SPI0FCN0
*SFR* 0000009BH   DATA     BYTE      SPI0FCN1
*SFR* 000000F7H   DATA     BYTE      SPI0FCT
*SFR* 000000DFH   DATA     BYTE      SPI0PCF
      00000016H   DATA     BYTE      start_flag_sent
      00000052H   DATA     ---       stateTransMatrix
*SFR* 00000088H   DATA     BYTE      TCON
*SFR* 00000088H.1 DATA     BIT       TCON_IE0
*SFR* 00000088H.3 DATA     BIT       TCON_IE1
*SFR* 00000088H.0 DATA     BIT       TCON_IT0
*SFR* 00000088H.2 DATA     BIT       TCON_IT1
*SFR* 00000088H.5 DATA     BIT       TCON_TF0
*SFR* 00000088H.7 DATA     BIT       TCON_TF1
*SFR* 00000088H.4 DATA     BIT       TCON_TR0
*SFR* 00000088H.6 DATA     BIT       TCON_TR1
*SFR* 0000008CH   DATA     BYTE      TH0
*SFR* 0000008DH   DATA     BYTE      TH1
      01000755H   CODE     ---       TIMER01_0_enter_DefaultMode_from_RESET
      010007ADH   CODE     ---       TIMER16_2_enter_DefaultMode_from_RESET
      0100077EH   CODE     ---       TIMER16_3_enter_DefaultMode_from_RESET
      0100073FH   CODE     ---       TIMER16_4_enter_DefaultMode_from_RESET
      010006CEH   CODE     ---       TIMER2_ISR
      010007A0H   CODE     ---       TIMER_SETUP_0_enter_DefaultMode_from_RESET
*SFR* 0000008AH   DATA     BYTE      TL0
*SFR* 0000008BH   DATA     BYTE      TL1
*SFR* 00000089H   DATA     BYTE      TMOD
*SFR* 000000CEH   DATA     WORD      TMR2
*SFR* 000000C8H   DATA     BYTE      TMR2CN0
*SFR* 000000C8H.3 DATA     BIT       TMR2CN0_T2SPLIT
*SFR* 000000C8H.0 DATA     BIT       TMR2CN0_T2XCLK0
*SFR* 000000C8H.1 DATA     BIT       TMR2CN0_T2XCLK1
*SFR* 000000C8H.4 DATA     BIT       TMR2CN0_TF2CEN
*SFR* 000000C8H.7 DATA     BIT       TMR2CN0_TF2H
*SFR* 000000C8H.6 DATA     BIT       TMR2CN0_TF2L
*SFR* 000000C8H.5 DATA     BIT       TMR2CN0_TF2LEN
*SFR* 000000C8H.2 DATA     BIT       TMR2CN0_TR2
*SFR* 000000FDH   DATA     BYTE      TMR2CN1
*SFR* 000000CFH   DATA     BYTE      TMR2H
*SFR* 000000CEH   DATA     BYTE      TMR2L
*SFR* 000000CAH   DATA     WORD      TMR2RL
*SFR* 000000CBH   DATA     BYTE      TMR2RLH
*SFR* 000000CAH   DATA     BYTE      TMR2RLL
*SFR* 00000094H   DATA     WORD      TMR3
*SFR* 00000091H   DATA     BYTE      TMR3CN0
*SFR* 000000FEH   DATA     BYTE      TMR3CN1
*SFR* 00000095H   DATA     BYTE      TMR3H
*SFR* 00000094H   DATA     BYTE      TMR3L
LX51 LINKER/LOCATER V4.66.97.0                                                        02/23/2023  16:00:17  PAGE 13


*SFR* 00000092H   DATA     WORD      TMR3RL
*SFR* 00000093H   DATA     BYTE      TMR3RLH
*SFR* 00000092H   DATA     BYTE      TMR3RLL
*SFR* 000000A4H   DATA     WORD      TMR4
*SFR* 00000098H   DATA     BYTE      TMR4CN0
*SFR* 00000098H.3 DATA     BIT       TMR4CN0_T4SPLIT
*SFR* 00000098H.0 DATA     BIT       TMR4CN0_T4XCLK0
*SFR* 00000098H.1 DATA     BIT       TMR4CN0_T4XCLK1
*SFR* 00000098H.4 DATA     BIT       TMR4CN0_TF4CEN
*SFR* 00000098H.7 DATA     BIT       TMR4CN0_TF4H
*SFR* 00000098H.6 DATA     BIT       TMR4CN0_TF4L
*SFR* 00000098H.5 DATA     BIT       TMR4CN0_TF4LEN
*SFR* 00000098H.2 DATA     BIT       TMR4CN0_TR4
*SFR* 000000FFH   DATA     BYTE      TMR4CN1
*SFR* 000000A5H   DATA     BYTE      TMR4H
*SFR* 000000A4H   DATA     BYTE      TMR4L
*SFR* 000000A2H   DATA     WORD      TMR4RL
*SFR* 000000A3H   DATA     BYTE      TMR4RLH
*SFR* 000000A2H   DATA     BYTE      TMR4RLL
*SFR* 000000D4H   DATA     WORD      TMR5
*SFR* 000000C0H   DATA     BYTE      TMR5CN0
*SFR* 000000C0H.3 DATA     BIT       TMR5CN0_T5SPLIT
*SFR* 000000C0H.0 DATA     BIT       TMR5CN0_T5XCLK0
*SFR* 000000C0H.1 DATA     BIT       TMR5CN0_T5XCLK1
*SFR* 000000C0H.4 DATA     BIT       TMR5CN0_TF5CEN
*SFR* 000000C0H.7 DATA     BIT       TMR5CN0_TF5H
*SFR* 000000C0H.6 DATA     BIT       TMR5CN0_TF5L
*SFR* 000000C0H.5 DATA     BIT       TMR5CN0_TF5LEN
*SFR* 000000C0H.2 DATA     BIT       TMR5CN0_TR5
*SFR* 000000F1H   DATA     BYTE      TMR5CN1
*SFR* 000000D5H   DATA     BYTE      TMR5H
*SFR* 000000D4H   DATA     BYTE      TMR5L
*SFR* 000000D2H   DATA     WORD      TMR5RL
*SFR* 000000D3H   DATA     BYTE      TMR5RLH
*SFR* 000000D2H   DATA     BYTE      TMR5RLL
      0100002EH   CODE     ---       UART0_ISR
*SFR* 000000D9H   DATA     BYTE      UART0PCF
*SFR* 0000009DH   DATA     BYTE      UART1FCN0
*SFR* 000000D8H   DATA     BYTE      UART1FCN1
*SFR* 000000D8H.3 DATA     BIT       UART1FCN1_RFRQ
*SFR* 000000D8H.0 DATA     BIT       UART1FCN1_RIE
*SFR* 000000D8H.1 DATA     BIT       UART1FCN1_RXTO0
*SFR* 000000D8H.2 DATA     BIT       UART1FCN1_RXTO1
*SFR* 000000D8H.7 DATA     BIT       UART1FCN1_TFRQ
*SFR* 000000D8H.4 DATA     BIT       UART1FCN1_TIE
*SFR* 000000D8H.5 DATA     BIT       UART1FCN1_TXHOLD
*SFR* 000000D8H.6 DATA     BIT       UART1FCN1_TXNF
*SFR* 000000FAH   DATA     BYTE      UART1FCT
*SFR* 0000009EH   DATA     BYTE      UART1LIN
*SFR* 000000DAH   DATA     BYTE      UART1PCF
      0100080AH   CODE     ---       UART_0_enter_DefaultMode_from_RESET
      01000647H   CODE     ---       update_pwm
      01000500H   CODE     ---       WDT_0_enter_DefaultMode_from_RESET
*SFR* 00000097H   DATA     BYTE      WDTCN
*SFR* 000000E1H   DATA     BYTE      XBR0
*SFR* 000000E2H   DATA     BYTE      XBR1
*SFR* 000000E3H   DATA     BYTE      XBR2



SYMBOL TABLE OF MODULE:  LAMP_2.OMF.CRBUILD (INITDEVICE)

LX51 LINKER/LOCATER V4.66.97.0                                                        02/23/2023  16:00:17  PAGE 14


      VALUE       REP       CLASS    TYPE      SYMBOL NAME
      ====================================================
      ---         MODULE    ---      ---       INITDEVICE
      01000755H   PUBLIC    CODE     ---       TIMER01_0_enter_DefaultMode_from_RESET
      0100080AH   PUBLIC    CODE     ---       UART_0_enter_DefaultMode_from_RESET
      0100073FH   PUBLIC    CODE     ---       TIMER16_4_enter_DefaultMode_from_RESET
      0100077EH   PUBLIC    CODE     ---       TIMER16_3_enter_DefaultMode_from_RESET
      010007ADH   PUBLIC    CODE     ---       TIMER16_2_enter_DefaultMode_from_RESET
      010007A0H   PUBLIC    CODE     ---       TIMER_SETUP_0_enter_DefaultMode_from_RESET
      01000026H   PUBLIC    CODE     ---       INTERRUPT_0_enter_DefaultMode_from_RESET
      01000803H   PUBLIC    CODE     ---       PORTS_1_enter_DefaultMode_from_RESET
      010007FCH   PUBLIC    CODE     ---       PORTS_3_enter_DefaultMode_from_RESET
      010006A4H   PUBLIC    CODE     ---       PWM_0_enter_DefaultMode_from_RESET
      010007F5H   PUBLIC    CODE     ---       CIP51_0_enter_DefaultMode_from_RESET
      0100076BH   PUBLIC    CODE     ---       CLOCK_0_enter_DefaultMode_from_RESET
      010007DBH   PUBLIC    CODE     ---       PBCFG_0_enter_DefaultMode_from_RESET
      010007EEH   PUBLIC    CODE     ---       PORTS_0_enter_DefaultMode_from_RESET
      01000500H   PUBLIC    CODE     ---       WDT_0_enter_DefaultMode_from_RESET
      010005E0H   PUBLIC    CODE     ---       enter_DefaultMode_from_RESET
      000000A2H   SFRSYM    DATA     BYTE      SPI0CKR
      00000080H   SFRSYM    DATA     BYTE      P0
      000000C8H.6 SFRSYM    DATA     BIT       SCON1_PERR
      000000D0H.2 SFRSYM    DATA     BIT       PSW_OV
      00000090H   SFRSYM    DATA     BYTE      P1
      000000F8H.1 SFRSYM    DATA     BIT       SPI0CN0_TXNF
      00000097H   SFRSYM    DATA     BYTE      WDTCN
      0000009AH   SFRSYM    DATA     BYTE      PWMCPH0
      000000A0H   SFRSYM    DATA     BYTE      P2
      000000B6H   SFRSYM    DATA     BYTE      PWMCPH1
      000000B0H   SFRSYM    DATA     BYTE      P3
      0000009FH   SFRSYM    DATA     BYTE      PWMIE
      000000BEH   SFRSYM    DATA     BYTE      PWMCPH2
      000000C0H.7 SFRSYM    DATA     BIT       SMB0CN0_MASTER
      000000F9H   SFRSYM    DATA     WORD      PCA0
      0000009DH   SFRSYM    DATA     BYTE      PWMIF
      000000E6H   SFRSYM    DATA     BYTE      EIE1
      00000088H.7 SFRSYM    DATA     BIT       SMB1CN0_MASTER
      000000C0H.1 SFRSYM    DATA     BIT       SMB0CN0_ACK
      000000E8H.1 SFRSYM    DATA     BIT       CLIF0_C0RIF
      00000099H   SFRSYM    DATA     BYTE      PWMCPL0
      000000F3H   SFRSYM    DATA     BYTE      EIE2
      00000088H.1 SFRSYM    DATA     BIT       SMB1CN0_ACK
      000000E8H.3 SFRSYM    DATA     BIT       CLIF0_C1RIF
      000000B5H   SFRSYM    DATA     BYTE      PWMCPL1
      000000E8H.5 SFRSYM    DATA     BIT       CLIF0_C2RIF
      000000BDH   SFRSYM    DATA     BYTE      PWMCPL2
      0000008FH   SFRSYM    DATA     BYTE      PSCTL
      000000E8H.7 SFRSYM    DATA     BIT       CLIF0_C3RIF
      000000E4H   SFRSYM    DATA     BYTE      IT01CF
      000000C0H.6 SFRSYM    DATA     BIT       SMB0CN0_TXMODE
      000000E2H   SFRSYM    DATA     BYTE      PWMDTINLIM
      000000ADH   SFRSYM    DATA     BYTE      DERIVID
      00000088H.6 SFRSYM    DATA     BIT       SMB1CN0_TXMODE
      000000A7H   SFRSYM    DATA     BYTE      SFRPAGE
      000000E1H   SFRSYM    DATA     BYTE      PWMDTIPLIM
      000000A4H   SFRSYM    DATA     BYTE      P0MDOUT
      000000A5H   SFRSYM    DATA     BYTE      P1MDOUT
      000000E8H.5 SFRSYM    DATA     BIT       ADC0CN0_ADINT
      000000CBH   SFRSYM    DATA     BYTE      TMR2RLH
      000000A6H   SFRSYM    DATA     BYTE      P2MDOUT
      000000A8H   SFRSYM    DATA     BYTE      IE
      00000093H   SFRSYM    DATA     BYTE      TMR3RLH
LX51 LINKER/LOCATER V4.66.97.0                                                        02/23/2023  16:00:17  PAGE 15


      0000009CH   SFRSYM    DATA     BYTE      P3MDOUT
      000000A3H   SFRSYM    DATA     BYTE      TMR4RLH
      000000BBH   SFRSYM    DATA     BYTE      EIP1
      000000D3H   SFRSYM    DATA     BYTE      TMR5RLH
      000000EDH   SFRSYM    DATA     BYTE      EIP2
      00000098H.2 SFRSYM    DATA     BIT       SCON0_RB8
      000000CAH   SFRSYM    DATA     BYTE      TMR2RLL
      000000FCH   SFRSYM    DATA     BYTE      PCA0CPH0
      00000092H   SFRSYM    DATA     BYTE      TMR3RLL
      000000EAH   SFRSYM    DATA     BYTE      PCA0CPH1
      00000098H.3 SFRSYM    DATA     BIT       SCON0_TB8
      000000F0H.0 SFRSYM    DATA     BIT       B_B0
      00000082H   SFRSYM    DATA     WORD      DP
      000000A2H   SFRSYM    DATA     BYTE      TMR4RLL
      000000ECH   SFRSYM    DATA     BYTE      PCA0CPH2
      000000F0H.1 SFRSYM    DATA     BIT       B_B1
      000000C3H   SFRSYM    DATA     WORD      ADC0GT
      000000D2H   SFRSYM    DATA     BYTE      TMR5RLL
      000000D8H.3 SFRSYM    DATA     BIT       UART1FCN1_RFRQ
      000000F0H.2 SFRSYM    DATA     BIT       B_B2
      000000BCH   SFRSYM    DATA     BYTE      SFRPGCN
      000000FBH   SFRSYM    DATA     BYTE      PCA0CPL0
      000000F0H.3 SFRSYM    DATA     BIT       B_B3
      000000D9H   SFRSYM    DATA     BYTE      PCA0MD
      000000DAH   SFRSYM    DATA     BYTE      PCA0CPM0
      000000E9H   SFRSYM    DATA     BYTE      PCA0CPL1
      000000D8H.7 SFRSYM    DATA     BIT       UART1FCN1_TFRQ
      000000F0H.4 SFRSYM    DATA     BIT       B_B4
      000000DBH   SFRSYM    DATA     BYTE      PCA0CPM1
      000000EBH   SFRSYM    DATA     BYTE      PCA0CPL2
      000000A1H   SFRSYM    DATA     BYTE      ADC0ASCF
      000000B6H   SFRSYM    DATA     BYTE      ADC0ASAH
      000000F0H.5 SFRSYM    DATA     BIT       B_B5
      000000E8H.6 SFRSYM    DATA     BIT       ADC0CN0_IPOEN
      000000E8H.0 SFRSYM    DATA     BIT       ADC0CN0_TEMPE
      000000DCH   SFRSYM    DATA     BYTE      PCA0CPM2
      000000B8H   SFRSYM    DATA     BYTE      IP
      000000F0H.6 SFRSYM    DATA     BIT       B_B6
      000000C5H   SFRSYM    DATA     WORD      ADC0LT
      000000D8H.6 SFRSYM    DATA     BIT       UART1FCN1_TXNF
      00000098H.5 SFRSYM    DATA     BIT       SCON0_MCE
      000000F0H.7 SFRSYM    DATA     BIT       B_B7
      000000C3H   SFRSYM    DATA     BYTE      SMB0FCN0
      000000ACH   SFRSYM    DATA     BYTE      PWMCPUDH0
      000000B5H   SFRSYM    DATA     BYTE      ADC0ASAL
      000000E1H   SFRSYM    DATA     BYTE      XBR0
      000000ADH   SFRSYM    DATA     BYTE      SMB1FCN0
      000000C4H   SFRSYM    DATA     BYTE      SMB0FCN1
      000000C1H   SFRSYM    DATA     BYTE      SMB0CF
      000000B3H   SFRSYM    DATA     BYTE      PWMCPUDH1
      000000E2H   SFRSYM    DATA     BYTE      XBR1
      000000ABH   SFRSYM    DATA     BYTE      SMB1FCN1
      000000BAH   SFRSYM    DATA     BYTE      SMB1CF
      000000BAH   SFRSYM    DATA     BYTE      PWMCPUDH2
      000000C1H   SFRSYM    DATA     BYTE      PFE0CN
      000000E7H   SFRSYM    DATA     BYTE      EMI0CN
      000000C0H.5 SFRSYM    DATA     BIT       SMB0CN0_STA
      000000E3H   SFRSYM    DATA     BYTE      XBR2
      000000B1H   SFRSYM    DATA     BYTE      CLU0CF
      000000BBH   SFRSYM    DATA     BYTE      ADC0MX
      00000088H.5 SFRSYM    DATA     BIT       SMB1CN0_STA
      000000E0H.0 SFRSYM    DATA     BIT       ACC_ACC0
LX51 LINKER/LOCATER V4.66.97.0                                                        02/23/2023  16:00:17  PAGE 16


      000000D1H   SFRSYM    DATA     BYTE      REF0CN
      000000ABH   SFRSYM    DATA     BYTE      PWMCPUDL0
      000000EFH   SFRSYM    DATA     BYTE      HFO0CN
      000000B3H   SFRSYM    DATA     BYTE      CLU1CF
      0000008EH   SFRSYM    DATA     BYTE      CKCON0
      000000E0H.1 SFRSYM    DATA     BIT       ACC_ACC1
      000000C9H   SFRSYM    DATA     BYTE      REG0CN
      000000C6H   SFRSYM    DATA     BYTE      PWMLIMH
      000000B2H   SFRSYM    DATA     BYTE      PWMCPUDL1
      000000CAH   SFRSYM    DATA     BYTE      CRC0IN
      000000B6H   SFRSYM    DATA     BYTE      CLU2CF
      000000A6H   SFRSYM    DATA     BYTE      CKCON1
      000000C8H.2 SFRSYM    DATA     BIT       TMR2CN0_TR2
      000000E0H.2 SFRSYM    DATA     BIT       ACC_ACC2
      000000B9H   SFRSYM    DATA     BYTE      PWMCPUDL2
      000000BFH   SFRSYM    DATA     BYTE      CLU3CF
      000000E0H.3 SFRSYM    DATA     BIT       ACC_ACC3
      00000081H   SFRSYM    DATA     BYTE      SP
      0000009DH   SFRSYM    DATA     BYTE      CMP0MD
      000000E0H.4 SFRSYM    DATA     BIT       ACC_ACC4
      000000B1H   SFRSYM    DATA     BYTE      LFO0CN
      000000ABH   SFRSYM    DATA     BYTE      CMP1MD
      000000D8H.0 SFRSYM    DATA     BIT       PCA0CN0_CCF0
      000000E0H.5 SFRSYM    DATA     BIT       ACC_ACC5
      000000C5H   SFRSYM    DATA     BYTE      PWMLIML
      00000098H.2 SFRSYM    DATA     BIT       TMR4CN0_TR4
      000000D8H.1 SFRSYM    DATA     BIT       PCA0CN0_CCF1
      000000E0H.6 SFRSYM    DATA     BIT       ACC_ACC6
      000000CEH   SFRSYM    DATA     WORD      TMR2
      0000009AH   SFRSYM    DATA     BYTE      SPI0FCN0
      000000C7H   SFRSYM    DATA     BYTE      ADC0ASCT
      000000D8H.2 SFRSYM    DATA     BIT       PCA0CN0_CCF2
      000000E0H.7 SFRSYM    DATA     BIT       ACC_ACC7
      00000094H   SFRSYM    DATA     WORD      TMR3
      0000009BH   SFRSYM    DATA     BYTE      SPI0FCN1
      000000C0H.2 SFRSYM    DATA     BIT       TMR5CN0_TR5
      000000A4H   SFRSYM    DATA     WORD      TMR4
      00000094H   SFRSYM    DATA     BYTE      SBCON1
      000000D4H   SFRSYM    DATA     WORD      TMR5
      000000C0H.3 SFRSYM    DATA     BIT       SMB0CN0_ACKRQ
      000000F1H   SFRSYM    DATA     BYTE      P0MDIN
      000000AFH   SFRSYM    DATA     BYTE      CLU0FN
      00000088H.3 SFRSYM    DATA     BIT       SMB1CN0_ACKRQ
      00000098H.4 SFRSYM    DATA     BIT       SCON0_REN
      000000ACH   SFRSYM    DATA     BYTE      SMB0TC
      000000F2H   SFRSYM    DATA     BYTE      P1MDIN
      000000B2H   SFRSYM    DATA     BYTE      CLU1FN
      000000C8H.4 SFRSYM    DATA     BIT       SCON1_REN
      000000B9H   SFRSYM    DATA     BYTE      SMB1TC
      000000F3H   SFRSYM    DATA     BYTE      P2MDIN
      000000B5H   SFRSYM    DATA     BYTE      CLU2FN
      000000C0H.4 SFRSYM    DATA     BIT       SMB0CN0_STO
      000000F4H   SFRSYM    DATA     BYTE      P3MDIN
      000000BEH   SFRSYM    DATA     BYTE      CLU3FN
      00000088H.4 SFRSYM    DATA     BIT       SMB1CN0_STO
      00000096H   SFRSYM    DATA     BYTE      SBRLH1
      000000FEH   SFRSYM    DATA     BYTE      P0MASK
      000000D8H.5 SFRSYM    DATA     BIT       UART1FCN1_TXHOLD
      000000EEH   SFRSYM    DATA     BYTE      P1MASK
      000000FCH   SFRSYM    DATA     BYTE      P2MASK
      000000D0H.3 SFRSYM    DATA     BIT       PSW_RS0
      000000D8H.7 SFRSYM    DATA     BIT       PCA0CN0_CF
LX51 LINKER/LOCATER V4.66.97.0                                                        02/23/2023  16:00:17  PAGE 17


      0000009EH   SFRSYM    DATA     BYTE      PCA0CENT
      000000D2H   SFRSYM    DATA     BYTE      CRC0ST
      000000F8H.4 SFRSYM    DATA     BIT       SPI0CN0_RXOVRN
      000000D0H.4 SFRSYM    DATA     BIT       PSW_RS1
      00000095H   SFRSYM    DATA     BYTE      SBRLL1
      000000C8H.2 SFRSYM    DATA     BIT       SCON1_RBX
      00000091H   SFRSYM    DATA     BYTE      DAC0CF0
      000000C8H.0 SFRSYM    DATA     BIT       TMR2CN0_T2XCLK0
      00000092H   SFRSYM    DATA     BYTE      DAC0CF1
      000000B9H   SFRSYM    DATA     BYTE      ADC0CF1
      000000C8H.1 SFRSYM    DATA     BIT       TMR2CN0_T2XCLK1
      000000C8H.3 SFRSYM    DATA     BIT       SCON1_TBX
      000000E8H.7 SFRSYM    DATA     BIT       ADC0CN0_ADEN
      00000089H   SFRSYM    DATA     BYTE      TMOD
      00000088H   SFRSYM    DATA     BYTE      TCON
      000000DFH   SFRSYM    DATA     BYTE      ADC0CF2
      000000CFH   SFRSYM    DATA     BYTE      CRC0FLIP
      000000D0H.0 SFRSYM    DATA     BIT       PSW_PARITY
      000000A8H.4 SFRSYM    DATA     BIT       IE_ES0
      0000009FH   SFRSYM    DATA     BYTE      CMP0MX
      00000098H.0 SFRSYM    DATA     BIT       TMR4CN0_T4XCLK0
      000000A8H.1 SFRSYM    DATA     BIT       IE_ET0
      000000AAH   SFRSYM    DATA     BYTE      CMP1MX
      00000098H.1 SFRSYM    DATA     BIT       TMR4CN0_T4XCLK1
      000000A8H.3 SFRSYM    DATA     BIT       IE_ET1
      00000099H   SFRSYM    DATA     WORD      PWMCP0
      000000D4H   SFRSYM    DATA     BYTE      P0SKIP
      000000D1H   SFRSYM    DATA     BYTE      CLOUT0
      000000D8H.0 SFRSYM    DATA     BIT       UART1FCN1_RIE
      000000C0H.0 SFRSYM    DATA     BIT       TMR5CN0_T5XCLK0
      000000A8H.5 SFRSYM    DATA     BIT       IE_ET2
      000000B5H   SFRSYM    DATA     WORD      PWMCP1
      000000D5H   SFRSYM    DATA     BYTE      P1SKIP
      000000C0H.1 SFRSYM    DATA     BIT       TMR5CN0_T5XCLK1
      000000BDH   SFRSYM    DATA     WORD      PWMCP2
      000000CCH   SFRSYM    DATA     BYTE      P2SKIP
      00000084H   SFRSYM    DATA     BYTE      CLU0MX
      000000E8H   SFRSYM    DATA     BYTE      ADC0CN0
      000000D8H.4 SFRSYM    DATA     BIT       UART1FCN1_TIE
      000000A8H.0 SFRSYM    DATA     BIT       IE_EX0
      00000085H   SFRSYM    DATA     BYTE      CLU1MX
      000000B2H   SFRSYM    DATA     BYTE      ADC0CN1
      000000D8H.6 SFRSYM    DATA     BIT       PCA0CN0_CR
      000000A8H.2 SFRSYM    DATA     BIT       IE_EX1
      000000C4H   SFRSYM    DATA     BYTE      PWMH
      00000091H   SFRSYM    DATA     BYTE      CLU2MX
      000000B3H   SFRSYM    DATA     BYTE      ADC0CN2
      000000C8H.7 SFRSYM    DATA     BIT       SCON1_OVR
      000000AAH   SFRSYM    DATA     BYTE      PSTAT0
      000000AEH   SFRSYM    DATA     BYTE      CLU3MX
      00000098H.7 SFRSYM    DATA     BIT       SCON0_SMODE
      000000B5H   SFRSYM    DATA     BYTE      DEVICEID
      000000A9H   SFRSYM    DATA     BYTE      CLKSEL
      000000F8H.0 SFRSYM    DATA     BIT       SPI0CN0_SPIEN
      000000C3H   SFRSYM    DATA     BYTE      PWML
      00000085H   SFRSYM    DATA     BYTE      DAC0H
      000000F0H   SFRSYM    DATA     BYTE      B
      000000BEH   SFRSYM    DATA     BYTE      ADC0H
      000000CAH   SFRSYM    DATA     WORD      TMR2RL
      00000084H   SFRSYM    DATA     BYTE      DAC0L
      000000BDH   SFRSYM    DATA     BYTE      ADC0L
      00000092H   SFRSYM    DATA     WORD      TMR3RL
LX51 LINKER/LOCATER V4.66.97.0                                                        02/23/2023  16:00:17  PAGE 18


      000000A2H   SFRSYM    DATA     WORD      TMR4RL
      000000D8H   SFRSYM    DATA     BYTE      PCA0CN0
      000000E0H   SFRSYM    DATA     BYTE      ACC
      000000D2H   SFRSYM    DATA     WORD      TMR5RL
      000000D9H   SFRSYM    DATA     BYTE      UART0PCF
      000000FBH   SFRSYM    DATA     WORD      PCA0CP0
      000000DAH   SFRSYM    DATA     BYTE      UART1PCF
      000000E9H   SFRSYM    DATA     WORD      PCA0CP1
      000000EBH   SFRSYM    DATA     WORD      PCA0CP2
      000000CEH   SFRSYM    DATA     BYTE      CRC0CN0
      0000008CH   SFRSYM    DATA     BYTE      TH0
      00000086H   SFRSYM    DATA     BYTE      CRC0CN1
      000000B8H.4 SFRSYM    DATA     BIT       IP_PS0
      000000FAH   SFRSYM    DATA     BYTE      UART1FCT
      0000008DH   SFRSYM    DATA     BYTE      TH1
      000000FAH   SFRSYM    DATA     BYTE      PCA0H
      000000B8H.1 SFRSYM    DATA     BIT       IP_PT0
      000000C7H   SFRSYM    DATA     BYTE      CLIE0
      000000B8H.3 SFRSYM    DATA     BIT       IP_PT1
      000000B5H   SFRSYM    DATA     WORD      ADC0ASA
      000000E8H   SFRSYM    DATA     BYTE      CLIF0
      000000C0H.2 SFRSYM    DATA     BIT       SMB0CN0_ARBLOST
      000000B8H.5 SFRSYM    DATA     BIT       IP_PT2
      0000008AH   SFRSYM    DATA     BYTE      TL0
      00000088H.2 SFRSYM    DATA     BIT       SMB1CN0_ARBLOST
      000000D0H.5 SFRSYM    DATA     BIT       PSW_F0
      000000A8H.6 SFRSYM    DATA     BIT       IE_ESPI0
      0000008BH   SFRSYM    DATA     BYTE      TL1
      000000F9H   SFRSYM    DATA     BYTE      PCA0L
      000000C0H.0 SFRSYM    DATA     BIT       SMB0CN0_SI
      000000D0H.1 SFRSYM    DATA     BIT       PSW_F1
      00000080H.0 SFRSYM    DATA     BIT       P0_B0
      000000B8H.0 SFRSYM    DATA     BIT       IP_PX0
      00000088H.0 SFRSYM    DATA     BIT       SMB1CN0_SI
      00000090H.0 SFRSYM    DATA     BIT       P1_B0
      00000080H.1 SFRSYM    DATA     BIT       P0_B1
      000000B8H.2 SFRSYM    DATA     BIT       IP_PX1
      000000ABH   SFRSYM    DATA     WORD      PWMCPUD0
      0000009EH   SFRSYM    DATA     BYTE      UART1LIN
      0000009BH   SFRSYM    DATA     BYTE      CMP0CN0
      000000C6H   SFRSYM    DATA     BYTE      CLEN0
      00000088H.1 SFRSYM    DATA     BIT       TCON_IE0
      000000A0H.0 SFRSYM    DATA     BIT       P2_B0
      00000090H.1 SFRSYM    DATA     BIT       P1_B1
      00000080H.2 SFRSYM    DATA     BIT       P0_B2
      000000B2H   SFRSYM    DATA     WORD      PWMCPUD1
      000000BFH   SFRSYM    DATA     BYTE      CMP1CN0
      00000099H   SFRSYM    DATA     BYTE      CMP0CN1
      00000088H.3 SFRSYM    DATA     BIT       TCON_IE1
      000000B0H.0 SFRSYM    DATA     BIT       P3_B0
      000000A0H.1 SFRSYM    DATA     BIT       P2_B1
      00000090H.2 SFRSYM    DATA     BIT       P1_B2
      00000080H.3 SFRSYM    DATA     BIT       P0_B3
      000000B9H   SFRSYM    DATA     WORD      PWMCPUD2
      000000C0H   SFRSYM    DATA     BYTE      SMB0CN0
      000000A4H   SFRSYM    DATA     BYTE      CP0CN
      000000ACH   SFRSYM    DATA     BYTE      CMP1CN1
      000000B0H.1 SFRSYM    DATA     BIT       P3_B1
      000000A0H.2 SFRSYM    DATA     BIT       P2_B2
      00000090H.3 SFRSYM    DATA     BIT       P1_B3
      00000080H.4 SFRSYM    DATA     BIT       P0_B4
      00000088H   SFRSYM    DATA     BYTE      SMB1CN0
LX51 LINKER/LOCATER V4.66.97.0                                                        02/23/2023  16:00:17  PAGE 19


      000000B0H.2 SFRSYM    DATA     BIT       P3_B2
      000000A0H.3 SFRSYM    DATA     BIT       P2_B3
      00000090H.4 SFRSYM    DATA     BIT       P1_B4
      00000080H.5 SFRSYM    DATA     BIT       P0_B5
      000000D8H.1 SFRSYM    DATA     BIT       UART1FCN1_RXTO0
      000000B0H.3 SFRSYM    DATA     BIT       P3_B3
      000000A0H.4 SFRSYM    DATA     BIT       P2_B4
      00000090H.5 SFRSYM    DATA     BIT       P1_B5
      00000080H.6 SFRSYM    DATA     BIT       P0_B6
      000000C5H   SFRSYM    DATA     WORD      PWMLIM
      000000EEH   SFRSYM    DATA     BYTE      EIP1H
      000000D8H.2 SFRSYM    DATA     BIT       UART1FCN1_RXTO1
      000000B0H.4 SFRSYM    DATA     BIT       P3_B4
      000000A0H.5 SFRSYM    DATA     BIT       P2_B5
      00000090H.6 SFRSYM    DATA     BIT       P1_B6
      00000080H.7 SFRSYM    DATA     BIT       P0_B7
      000000C5H   SFRSYM    DATA     BYTE      SMB0RXLN
      000000F6H   SFRSYM    DATA     BYTE      EIP2H
      000000B0H.5 SFRSYM    DATA     BIT       P3_B5
      000000A0H.6 SFRSYM    DATA     BIT       P2_B6
      00000090H.7 SFRSYM    DATA     BIT       P1_B7
      000000BCH   SFRSYM    DATA     BYTE      SMB1RXLN
      000000B0H.6 SFRSYM    DATA     BIT       P3_B6
      000000A0H.7 SFRSYM    DATA     BIT       P2_B7
      0000008AH   SFRSYM    DATA     BYTE      DAC0ALT
      000000B0H.7 SFRSYM    DATA     BIT       P3_B7
      0000009BH   SFRSYM    DATA     BYTE      PWMSTATUS
      00000083H   SFRSYM    DATA     BYTE      DPH
      000000C4H   SFRSYM    DATA     BYTE      ADC0GTH
      000000C8H.7 SFRSYM    DATA     BIT       TMR2CN0_TF2H
      000000C8H.3 SFRSYM    DATA     BIT       TMR2CN0_T2SPLIT
      000000D0H.6 SFRSYM    DATA     BIT       PSW_AC
      000000F8H   SFRSYM    DATA     BYTE      SPI0CN0
      000000D6H   SFRSYM    DATA     BYTE      HFO0CAL
      00000088H.5 SFRSYM    DATA     BIT       TCON_TF0
      00000098H.0 SFRSYM    DATA     BIT       SCON0_RI
      00000082H   SFRSYM    DATA     BYTE      DPL
      00000088H.7 SFRSYM    DATA     BIT       TCON_TF1
      000000C8H.0 SFRSYM    DATA     BIT       SCON1_RI
      00000099H   SFRSYM    DATA     BYTE      SBUF0
      00000087H   SFRSYM    DATA     BYTE      PCON0
      000000F2H   SFRSYM    DATA     BYTE      IPH
      000000C3H   SFRSYM    DATA     BYTE      ADC0GTL
      00000098H.7 SFRSYM    DATA     BIT       TMR4CN0_TF4H
      00000098H.3 SFRSYM    DATA     BIT       TMR4CN0_T4SPLIT
      000000C8H.6 SFRSYM    DATA     BIT       TMR2CN0_TF2L
      00000098H.1 SFRSYM    DATA     BIT       SCON0_TI
      00000092H   SFRSYM    DATA     BYTE      SBUF1
      000000CDH   SFRSYM    DATA     BYTE      PCON1
      000000C6H   SFRSYM    DATA     BYTE      ADC0LTH
      00000088H.0 SFRSYM    DATA     BIT       TCON_IT0
      000000C8H.1 SFRSYM    DATA     BIT       SCON1_TI
      000000EFH   SFRSYM    DATA     BYTE      RSTSRC
      000000FDH   SFRSYM    DATA     BYTE      P0MAT
      000000CBH   SFRSYM    DATA     BYTE      CRC0DAT
      000000C0H.7 SFRSYM    DATA     BIT       TMR5CN0_TF5H
      000000C0H.3 SFRSYM    DATA     BIT       TMR5CN0_T5SPLIT
      00000088H.2 SFRSYM    DATA     BIT       TCON_IT1
      000000D7H   SFRSYM    DATA     BYTE      SFRSTACK
      00000098H   SFRSYM    DATA     BYTE      SCON0
      000000F6H   SFRSYM    DATA     BYTE      PRTDRV
      000000EDH   SFRSYM    DATA     BYTE      P1MAT
LX51 LINKER/LOCATER V4.66.97.0                                                        02/23/2023  16:00:17  PAGE 20


      000000E8H.3 SFRSYM    DATA     BIT       ADC0CN0_ADWINT
      00000093H   SFRSYM    DATA     BYTE      SMOD1
      000000C8H   SFRSYM    DATA     BYTE      SCON1
      000000FBH   SFRSYM    DATA     BYTE      P2MAT
      00000098H.6 SFRSYM    DATA     BIT       TMR4CN0_TF4L
      000000E8H.4 SFRSYM    DATA     BIT       ADC0CN0_ADBUSY
      000000D6H   SFRSYM    DATA     BYTE      SMB0ADM
      000000C5H   SFRSYM    DATA     BYTE      ADC0LTL
      000000F8H.5 SFRSYM    DATA     BIT       SPI0CN0_MODF
      000000B8H.6 SFRSYM    DATA     BIT       IP_PSPI0
      000000E8H.1 SFRSYM    DATA     BIT       ADC0CN0_ADGN0
      000000FFH   SFRSYM    DATA     BYTE      SMB1ADM
      0000009CH   SFRSYM    DATA     BYTE      PCA0CLR
      000000C0H.6 SFRSYM    DATA     BIT       TMR5CN0_TF5L
      000000E8H.2 SFRSYM    DATA     BIT       ADC0CN0_ADGN1
      000000C8H   SFRSYM    DATA     BYTE      TMR2CN0
      000000E3H   SFRSYM    DATA     BYTE      PWMCKDIV
      00000091H   SFRSYM    DATA     BYTE      TMR3CN0
      000000FDH   SFRSYM    DATA     BYTE      TMR2CN1
      00000098H   SFRSYM    DATA     BYTE      TMR4CN0
      000000FEH   SFRSYM    DATA     BYTE      TMR3CN1
      000000C0H   SFRSYM    DATA     BYTE      TMR5CN0
      000000FFH   SFRSYM    DATA     BYTE      TMR4CN1
      000000D7H   SFRSYM    DATA     BYTE      SMB0ADR
      00000088H.4 SFRSYM    DATA     BIT       TCON_TR0
      000000F1H   SFRSYM    DATA     BYTE      TMR5CN1
      000000BDH   SFRSYM    DATA     BYTE      SMB1ADR
      000000C8H.4 SFRSYM    DATA     BIT       TMR2CN0_TF2CEN
      00000088H.6 SFRSYM    DATA     BIT       TCON_TR1
      000000C2H   SFRSYM    DATA     BYTE      SMB0DAT
      000000CFH   SFRSYM    DATA     BYTE      TMR2H
      000000A1H   SFRSYM    DATA     BYTE      SPI0CFG
      000000BBH   SFRSYM    DATA     BYTE      SMB1DAT
      00000095H   SFRSYM    DATA     BYTE      TMR3H
      000000D3H   SFRSYM    DATA     BYTE      CRC0CNT
      000000A5H   SFRSYM    DATA     BYTE      TMR4H
      00000098H.4 SFRSYM    DATA     BIT       TMR4CN0_TF4CEN
      000000D5H   SFRSYM    DATA     BYTE      TMR5H
      000000EFH   SFRSYM    DATA     BYTE      SMB0FCT
      00000096H   SFRSYM    DATA     BYTE      PCA0POL
      000000CEH   SFRSYM    DATA     BYTE      TMR2L
      000000F5H   SFRSYM    DATA     BYTE      SMB1FCT
      000000C0H.4 SFRSYM    DATA     BIT       TMR5CN0_TF5CEN
      000000F8H.7 SFRSYM    DATA     BIT       SPI0CN0_SPIF
      00000094H   SFRSYM    DATA     BYTE      TMR3L
      000000A8H.7 SFRSYM    DATA     BIT       IE_EA
      000000C3H   SFRSYM    DATA     WORD      PWM
      000000A4H   SFRSYM    DATA     BYTE      TMR4L
      000000D4H   SFRSYM    DATA     BYTE      TMR5L
      000000AFH   SFRSYM    DATA     BYTE      CLKGRP0
      000000C8H.5 SFRSYM    DATA     BIT       TMR2CN0_TF2LEN
      000000F8H.6 SFRSYM    DATA     BIT       SPI0CN0_WCOL
      000000C2H   SFRSYM    DATA     BYTE      PWMCFG0
      000000F8H.2 SFRSYM    DATA     BIT       SPI0CN0_NSSMD0
      000000D0H.7 SFRSYM    DATA     BIT       PSW_CY
      0000009DH   SFRSYM    DATA     BYTE      UART1FCN0
      000000DFH   SFRSYM    DATA     BYTE      SPI0PCF
      000000A3H   SFRSYM    DATA     BYTE      SPI0DAT
      000000C9H   SFRSYM    DATA     BYTE      PWMCFG1
      000000F8H.3 SFRSYM    DATA     BIT       SPI0CN0_NSSMD1
      000000BDH   SFRSYM    DATA     WORD      ADC0
      000000D8H   SFRSYM    DATA     BYTE      UART1FCN1
LX51 LINKER/LOCATER V4.66.97.0                                                        02/23/2023  16:00:17  PAGE 21


      000000D1H   SFRSYM    DATA     BYTE      PWMCFG2
      000000E8H.0 SFRSYM    DATA     BIT       CLIF0_C0FIF
      000000DFH   SFRSYM    DATA     BYTE      PWMCFG3
      00000098H.5 SFRSYM    DATA     BIT       TMR4CN0_TF4LEN
      000000E8H.2 SFRSYM    DATA     BIT       CLIF0_C1FIF
      000000D0H   SFRSYM    DATA     BYTE      PSW
      000000F7H   SFRSYM    DATA     BYTE      PCA0PWM
      000000E8H.4 SFRSYM    DATA     BIT       CLIF0_C2FIF
      000000F7H   SFRSYM    DATA     BYTE      SPI0FCT
      000000B6H   SFRSYM    DATA     BYTE      REVID
      000000C0H.5 SFRSYM    DATA     BIT       TMR5CN0_TF5LEN
      000000E8H.6 SFRSYM    DATA     BIT       CLIF0_C3FIF
      000000CCH   SFRSYM    DATA     BYTE      HFO0TRIM0
      000000B7H   SFRSYM    DATA     BYTE      FLKEY

      010005E0H   BLOCK     CODE     ---       LVL=0
      010005E0H   BLOCK     CODE     NEAR LAB  LVL=1
      00000022H   SYMBOL    DATA     BYTE      SFRPAGE_save
      ---         BLOCKEND  ---      ---       LVL=1
      010005E0H   LINE      CODE     ---       #23
      010005E0H   LINE      CODE     ---       #24
      010005E0H   LINE      CODE     ---       #27
      010005E3H   LINE      CODE     ---       #28
      010005E6H   LINE      CODE     ---       #29
      010005E9H   LINE      CODE     ---       #30
      010005ECH   LINE      CODE     ---       #31
      010005EFH   LINE      CODE     ---       #32
      010005F2H   LINE      CODE     ---       #33
      010005F5H   LINE      CODE     ---       #34
      010005F8H   LINE      CODE     ---       #35
      010005FBH   LINE      CODE     ---       #36
      010005FEH   LINE      CODE     ---       #37
      01000601H   LINE      CODE     ---       #38
      01000604H   LINE      CODE     ---       #39
      01000607H   LINE      CODE     ---       #40
      0100060AH   LINE      CODE     ---       #41
      0100060DH   LINE      CODE     ---       #42
      01000610H   LINE      CODE     ---       #44
      01000613H   LINE      CODE     ---       #47
      ---         BLOCKEND  ---      ---       LVL=0

      01000500H   BLOCK     CODE     ---       LVL=0
      01000500H   BLOCK     CODE     NEAR LAB  LVL=1
      00000023H   SYMBOL    DATA     DWORD     i
      00000020H.0 SYMBOL    BIT      BIT       ea
      ---         BLOCKEND  ---      ---       LVL=1
      01000500H   LINE      CODE     ---       #50
      01000500H   LINE      CODE     ---       #51
      01000500H   LINE      CODE     ---       #58
      01000503H   LINE      CODE     ---       #61
      01000506H   LINE      CODE     ---       #64
      01000522H   LINE      CODE     ---       #65
      01000522H   LINE      CODE     ---       #66
      01000523H   LINE      CODE     ---       #67
      0100053AH   LINE      CODE     ---       #70
      0100053EH   LINE      CODE     ---       #71
      01000540H   LINE      CODE     ---       #72
      01000543H   LINE      CODE     ---       #73
      01000546H   LINE      CODE     ---       #74
      0100054AH   LINE      CODE     ---       #78
      ---         BLOCKEND  ---      ---       LVL=0

LX51 LINKER/LOCATER V4.66.97.0                                                        02/23/2023  16:00:17  PAGE 22


      010007EEH   BLOCK     CODE     ---       LVL=0
      010007EEH   LINE      CODE     ---       #81
      010007EEH   LINE      CODE     ---       #82
      010007EEH   LINE      CODE     ---       #97
      010007F1H   LINE      CODE     ---       #114
      010007F4H   LINE      CODE     ---       #128
      ---         BLOCKEND  ---      ---       LVL=0

      010007DBH   BLOCK     CODE     ---       LVL=0
      010007DBH   LINE      CODE     ---       #131
      010007DBH   LINE      CODE     ---       #132
      010007DBH   LINE      CODE     ---       #143
      010007DEH   LINE      CODE     ---       #144
      010007E1H   LINE      CODE     ---       #163
      010007E4H   LINE      CODE     ---       #171
      ---         BLOCKEND  ---      ---       LVL=0

      0100076BH   BLOCK     CODE     ---       LVL=0
      0100076BH   LINE      CODE     ---       #174
      0100076BH   LINE      CODE     ---       #175
      0100076BH   LINE      CODE     ---       #178
      0100076EH   LINE      CODE     ---       #179
      01000774H   LINE      CODE     ---       #188
      01000777H   LINE      CODE     ---       #189
      0100077DH   LINE      CODE     ---       #196
      ---         BLOCKEND  ---      ---       LVL=0

      010007F5H   BLOCK     CODE     ---       LVL=0
      010007F5H   LINE      CODE     ---       #199
      010007F5H   LINE      CODE     ---       #200
      010007F5H   LINE      CODE     ---       #205
      010007F8H   LINE      CODE     ---       #206
      010007FBH   LINE      CODE     ---       #209
      ---         BLOCKEND  ---      ---       LVL=0

      010006A4H   BLOCK     CODE     ---       LVL=0
      010006A4H   LINE      CODE     ---       #212
      010006A4H   LINE      CODE     ---       #213
      010006A4H   LINE      CODE     ---       #215
      010006A7H   LINE      CODE     ---       #216
      010006AAH   LINE      CODE     ---       #232
      010006ADH   LINE      CODE     ---       #257
      010006B0H   LINE      CODE     ---       #264
      010006B3H   LINE      CODE     ---       #280
      010006B6H   LINE      CODE     ---       #281
      010006B9H   LINE      CODE     ---       #282
      010006BCH   LINE      CODE     ---       #283
      010006BEH   LINE      CODE     ---       #284
      010006C1H   LINE      CODE     ---       #285
      010006C4H   LINE      CODE     ---       #288
      010006C7H   LINE      CODE     ---       #289
      010006CAH   LINE      CODE     ---       #292
      010006CDH   LINE      CODE     ---       #295
      ---         BLOCKEND  ---      ---       LVL=0

      010007FCH   BLOCK     CODE     ---       LVL=0
      010007FCH   LINE      CODE     ---       #298
      010007FCH   LINE      CODE     ---       #299
      010007FCH   LINE      CODE     ---       #315
      010007FFH   LINE      CODE     ---       #316
      01000802H   LINE      CODE     ---       #320
      ---         BLOCKEND  ---      ---       LVL=0
LX51 LINKER/LOCATER V4.66.97.0                                                        02/23/2023  16:00:17  PAGE 23



      01000803H   BLOCK     CODE     ---       LVL=0
      01000803H   LINE      CODE     ---       #323
      01000803H   LINE      CODE     ---       #324
      01000803H   LINE      CODE     ---       #339
      01000806H   LINE      CODE     ---       #356
      01000809H   LINE      CODE     ---       #370
      ---         BLOCKEND  ---      ---       LVL=0

      01000026H   BLOCK     CODE     ---       LVL=0
      01000026H   LINE      CODE     ---       #373
      01000026H   LINE      CODE     ---       #374
      01000026H   LINE      CODE     ---       #404
      01000029H   LINE      CODE     ---       #414
      ---         BLOCKEND  ---      ---       LVL=0

      010007A0H   BLOCK     CODE     ---       LVL=0
      010007A0H   LINE      CODE     ---       #417
      010007A0H   LINE      CODE     ---       #418
      010007A0H   LINE      CODE     ---       #429
      010007A3H   LINE      CODE     ---       #430
      010007A6H   LINE      CODE     ---       #448
      010007A9H   LINE      CODE     ---       #456
      010007ACH   LINE      CODE     ---       #459
      ---         BLOCKEND  ---      ---       LVL=0

      010007ADH   BLOCK     CODE     ---       LVL=0
      010007ADH   BLOCK     CODE     NEAR LAB  LVL=1
      00000007H   SYMBOL    DATA     BYTE      TMR2CN0_TR2_save
      ---         BLOCKEND  ---      ---       LVL=1
      010007ADH   LINE      CODE     ---       #462
      010007ADH   LINE      CODE     ---       #463
      010007ADH   LINE      CODE     ---       #467
      010007B1H   LINE      CODE     ---       #469
      010007B4H   LINE      CODE     ---       #494
      010007B7H   LINE      CODE     ---       #499
      010007B9H   LINE      CODE     ---       #502
      ---         BLOCKEND  ---      ---       LVL=0

      0100077EH   BLOCK     CODE     ---       LVL=0
      0100077EH   BLOCK     CODE     NEAR LAB  LVL=1
      00000007H   SYMBOL    DATA     BYTE      TMR3CN0_TR3_save
      ---         BLOCKEND  ---      ---       LVL=1
      0100077EH   LINE      CODE     ---       #505
      0100077EH   LINE      CODE     ---       #506
      0100077EH   LINE      CODE     ---       #510
      01000782H   LINE      CODE     ---       #512
      01000785H   LINE      CODE     ---       #531
      01000788H   LINE      CODE     ---       #538
      0100078BH   LINE      CODE     ---       #545
      0100078EH   LINE      CODE     ---       #550
      01000790H   LINE      CODE     ---       #553
      ---         BLOCKEND  ---      ---       LVL=0

      0100073FH   BLOCK     CODE     ---       LVL=0
      0100073FH   BLOCK     CODE     NEAR LAB  LVL=1
      00000007H   SYMBOL    DATA     BYTE      TMR4CN0_TR4_save
      ---         BLOCKEND  ---      ---       LVL=1
      0100073FH   LINE      CODE     ---       #556
      0100073FH   LINE      CODE     ---       #557
      0100073FH   LINE      CODE     ---       #561
      01000742H   LINE      CODE     ---       #562
LX51 LINKER/LOCATER V4.66.97.0                                                        02/23/2023  16:00:17  PAGE 24


      01000746H   LINE      CODE     ---       #564
      01000749H   LINE      CODE     ---       #574
      0100074CH   LINE      CODE     ---       #575
      0100074FH   LINE      CODE     ---       #594
      01000752H   LINE      CODE     ---       #599
      01000754H   LINE      CODE     ---       #602
      ---         BLOCKEND  ---      ---       LVL=0

      0100080AH   BLOCK     CODE     ---       LVL=0
      0100080AH   LINE      CODE     ---       #605
      0100080AH   LINE      CODE     ---       #606
      0100080AH   LINE      CODE     ---       #613
      0100080DH   LINE      CODE     ---       #614
      01000810H   LINE      CODE     ---       #617
      ---         BLOCKEND  ---      ---       LVL=0

      01000755H   BLOCK     CODE     ---       LVL=0
      01000755H   BLOCK     CODE     NEAR LAB  LVL=1
      00000007H   SYMBOL    DATA     BYTE      TCON_save
      ---         BLOCKEND  ---      ---       LVL=1
      01000755H   LINE      CODE     ---       #620
      01000755H   LINE      CODE     ---       #621
      01000755H   LINE      CODE     ---       #626
      01000758H   LINE      CODE     ---       #627
      0100075AH   LINE      CODE     ---       #629
      0100075DH   LINE      CODE     ---       #643
      01000760H   LINE      CODE     ---       #651
      0100076AH   LINE      CODE     ---       #655
      ---         BLOCKEND  ---      ---       LVL=0

      ---         MODULE    ---      ---       INTERRUPTS
      0000001CH   PUBLIC    DATA     BYTE      previous_pressed
      010006CEH   PUBLIC    CODE     ---       TIMER2_ISR
      000000A2H   SFRSYM    DATA     BYTE      SPI0CKR
      00000080H   SFRSYM    DATA     BYTE      P0
      000000C8H.6 SFRSYM    DATA     BIT       SCON1_PERR
      000000D0H.2 SFRSYM    DATA     BIT       PSW_OV
      00000090H   SFRSYM    DATA     BYTE      P1
      000000F8H.1 SFRSYM    DATA     BIT       SPI0CN0_TXNF
      00000097H   SFRSYM    DATA     BYTE      WDTCN
      0000009AH   SFRSYM    DATA     BYTE      PWMCPH0
      000000A0H   SFRSYM    DATA     BYTE      P2
      000000B6H   SFRSYM    DATA     BYTE      PWMCPH1
      000000B0H   SFRSYM    DATA     BYTE      P3
      0000009FH   SFRSYM    DATA     BYTE      PWMIE
      000000BEH   SFRSYM    DATA     BYTE      PWMCPH2
      000000C0H.7 SFRSYM    DATA     BIT       SMB0CN0_MASTER
      000000F9H   SFRSYM    DATA     WORD      PCA0
      0000009DH   SFRSYM    DATA     BYTE      PWMIF
      000000E6H   SFRSYM    DATA     BYTE      EIE1
      00000088H.7 SFRSYM    DATA     BIT       SMB1CN0_MASTER
      000000C0H.1 SFRSYM    DATA     BIT       SMB0CN0_ACK
      000000E8H.1 SFRSYM    DATA     BIT       CLIF0_C0RIF
      00000099H   SFRSYM    DATA     BYTE      PWMCPL0
      000000F3H   SFRSYM    DATA     BYTE      EIE2
      00000088H.1 SFRSYM    DATA     BIT       SMB1CN0_ACK
      000000E8H.3 SFRSYM    DATA     BIT       CLIF0_C1RIF
      000000B5H   SFRSYM    DATA     BYTE      PWMCPL1
      000000E8H.5 SFRSYM    DATA     BIT       CLIF0_C2RIF
      000000BDH   SFRSYM    DATA     BYTE      PWMCPL2
      0000008FH   SFRSYM    DATA     BYTE      PSCTL
      000000E8H.7 SFRSYM    DATA     BIT       CLIF0_C3RIF
LX51 LINKER/LOCATER V4.66.97.0                                                        02/23/2023  16:00:17  PAGE 25


      000000E4H   SFRSYM    DATA     BYTE      IT01CF
      000000C0H.6 SFRSYM    DATA     BIT       SMB0CN0_TXMODE
      000000E2H   SFRSYM    DATA     BYTE      PWMDTINLIM
      000000ADH   SFRSYM    DATA     BYTE      DERIVID
      00000088H.6 SFRSYM    DATA     BIT       SMB1CN0_TXMODE
      000000A7H   SFRSYM    DATA     BYTE      SFRPAGE
      000000E1H   SFRSYM    DATA     BYTE      PWMDTIPLIM
      000000A4H   SFRSYM    DATA     BYTE      P0MDOUT
      000000A5H   SFRSYM    DATA     BYTE      P1MDOUT
      000000E8H.5 SFRSYM    DATA     BIT       ADC0CN0_ADINT
      000000CBH   SFRSYM    DATA     BYTE      TMR2RLH
      000000A6H   SFRSYM    DATA     BYTE      P2MDOUT
      000000A8H   SFRSYM    DATA     BYTE      IE
      00000093H   SFRSYM    DATA     BYTE      TMR3RLH
      0000009CH   SFRSYM    DATA     BYTE      P3MDOUT
      000000A3H   SFRSYM    DATA     BYTE      TMR4RLH
      000000BBH   SFRSYM    DATA     BYTE      EIP1
      000000D3H   SFRSYM    DATA     BYTE      TMR5RLH
      000000EDH   SFRSYM    DATA     BYTE      EIP2
      00000098H.2 SFRSYM    DATA     BIT       SCON0_RB8
      000000CAH   SFRSYM    DATA     BYTE      TMR2RLL
      000000FCH   SFRSYM    DATA     BYTE      PCA0CPH0
      00000092H   SFRSYM    DATA     BYTE      TMR3RLL
      000000EAH   SFRSYM    DATA     BYTE      PCA0CPH1
      00000098H.3 SFRSYM    DATA     BIT       SCON0_TB8
      000000F0H.0 SFRSYM    DATA     BIT       B_B0
      00000082H   SFRSYM    DATA     WORD      DP
      000000A2H   SFRSYM    DATA     BYTE      TMR4RLL
      000000ECH   SFRSYM    DATA     BYTE      PCA0CPH2
      000000F0H.1 SFRSYM    DATA     BIT       B_B1
      000000C3H   SFRSYM    DATA     WORD      ADC0GT
      000000D2H   SFRSYM    DATA     BYTE      TMR5RLL
      000000D8H.3 SFRSYM    DATA     BIT       UART1FCN1_RFRQ
      000000F0H.2 SFRSYM    DATA     BIT       B_B2
      000000BCH   SFRSYM    DATA     BYTE      SFRPGCN
      000000FBH   SFRSYM    DATA     BYTE      PCA0CPL0
      000000F0H.3 SFRSYM    DATA     BIT       B_B3
      000000D9H   SFRSYM    DATA     BYTE      PCA0MD
      000000DAH   SFRSYM    DATA     BYTE      PCA0CPM0
      000000E9H   SFRSYM    DATA     BYTE      PCA0CPL1
      000000D8H.7 SFRSYM    DATA     BIT       UART1FCN1_TFRQ
      000000F0H.4 SFRSYM    DATA     BIT       B_B4
      000000DBH   SFRSYM    DATA     BYTE      PCA0CPM1
      000000EBH   SFRSYM    DATA     BYTE      PCA0CPL2
      000000A1H   SFRSYM    DATA     BYTE      ADC0ASCF
      000000B6H   SFRSYM    DATA     BYTE      ADC0ASAH
      000000F0H.5 SFRSYM    DATA     BIT       B_B5
      000000E8H.6 SFRSYM    DATA     BIT       ADC0CN0_IPOEN
      000000E8H.0 SFRSYM    DATA     BIT       ADC0CN0_TEMPE
      000000DCH   SFRSYM    DATA     BYTE      PCA0CPM2
      000000B8H   SFRSYM    DATA     BYTE      IP
      000000F0H.6 SFRSYM    DATA     BIT       B_B6
      000000C5H   SFRSYM    DATA     WORD      ADC0LT
      000000D8H.6 SFRSYM    DATA     BIT       UART1FCN1_TXNF
      00000098H.5 SFRSYM    DATA     BIT       SCON0_MCE
      000000F0H.7 SFRSYM    DATA     BIT       B_B7
      000000C3H   SFRSYM    DATA     BYTE      SMB0FCN0
      000000ACH   SFRSYM    DATA     BYTE      PWMCPUDH0
      000000B5H   SFRSYM    DATA     BYTE      ADC0ASAL
      000000E1H   SFRSYM    DATA     BYTE      XBR0
      000000ADH   SFRSYM    DATA     BYTE      SMB1FCN0
      000000C4H   SFRSYM    DATA     BYTE      SMB0FCN1
LX51 LINKER/LOCATER V4.66.97.0                                                        02/23/2023  16:00:17  PAGE 26


      000000C1H   SFRSYM    DATA     BYTE      SMB0CF
      000000B3H   SFRSYM    DATA     BYTE      PWMCPUDH1
      000000E2H   SFRSYM    DATA     BYTE      XBR1
      000000ABH   SFRSYM    DATA     BYTE      SMB1FCN1
      000000BAH   SFRSYM    DATA     BYTE      SMB1CF
      000000BAH   SFRSYM    DATA     BYTE      PWMCPUDH2
      000000C1H   SFRSYM    DATA     BYTE      PFE0CN
      000000E7H   SFRSYM    DATA     BYTE      EMI0CN
      000000C0H.5 SFRSYM    DATA     BIT       SMB0CN0_STA
      000000E3H   SFRSYM    DATA     BYTE      XBR2
      000000B1H   SFRSYM    DATA     BYTE      CLU0CF
      000000BBH   SFRSYM    DATA     BYTE      ADC0MX
      00000088H.5 SFRSYM    DATA     BIT       SMB1CN0_STA
      000000E0H.0 SFRSYM    DATA     BIT       ACC_ACC0
      000000D1H   SFRSYM    DATA     BYTE      REF0CN
      000000ABH   SFRSYM    DATA     BYTE      PWMCPUDL0
      000000EFH   SFRSYM    DATA     BYTE      HFO0CN
      000000B3H   SFRSYM    DATA     BYTE      CLU1CF
      0000008EH   SFRSYM    DATA     BYTE      CKCON0
      000000E0H.1 SFRSYM    DATA     BIT       ACC_ACC1
      000000C9H   SFRSYM    DATA     BYTE      REG0CN
      000000C6H   SFRSYM    DATA     BYTE      PWMLIMH
      000000B2H   SFRSYM    DATA     BYTE      PWMCPUDL1
      000000CAH   SFRSYM    DATA     BYTE      CRC0IN
      000000B6H   SFRSYM    DATA     BYTE      CLU2CF
      000000A6H   SFRSYM    DATA     BYTE      CKCON1
      000000C8H.2 SFRSYM    DATA     BIT       TMR2CN0_TR2
      000000E0H.2 SFRSYM    DATA     BIT       ACC_ACC2
      000000B9H   SFRSYM    DATA     BYTE      PWMCPUDL2
      000000BFH   SFRSYM    DATA     BYTE      CLU3CF
      000000E0H.3 SFRSYM    DATA     BIT       ACC_ACC3
      00000081H   SFRSYM    DATA     BYTE      SP
      0000009DH   SFRSYM    DATA     BYTE      CMP0MD
      000000E0H.4 SFRSYM    DATA     BIT       ACC_ACC4
      000000B1H   SFRSYM    DATA     BYTE      LFO0CN
      000000ABH   SFRSYM    DATA     BYTE      CMP1MD
      000000D8H.0 SFRSYM    DATA     BIT       PCA0CN0_CCF0
      000000E0H.5 SFRSYM    DATA     BIT       ACC_ACC5
      000000C5H   SFRSYM    DATA     BYTE      PWMLIML
      00000098H.2 SFRSYM    DATA     BIT       TMR4CN0_TR4
      000000D8H.1 SFRSYM    DATA     BIT       PCA0CN0_CCF1
      000000E0H.6 SFRSYM    DATA     BIT       ACC_ACC6
      000000CEH   SFRSYM    DATA     WORD      TMR2
      0000009AH   SFRSYM    DATA     BYTE      SPI0FCN0
      000000C7H   SFRSYM    DATA     BYTE      ADC0ASCT
      000000D8H.2 SFRSYM    DATA     BIT       PCA0CN0_CCF2
      000000E0H.7 SFRSYM    DATA     BIT       ACC_ACC7
      00000094H   SFRSYM    DATA     WORD      TMR3
      0000009BH   SFRSYM    DATA     BYTE      SPI0FCN1
      000000C0H.2 SFRSYM    DATA     BIT       TMR5CN0_TR5
      000000A4H   SFRSYM    DATA     WORD      TMR4
      00000094H   SFRSYM    DATA     BYTE      SBCON1
      000000D4H   SFRSYM    DATA     WORD      TMR5
      000000C0H.3 SFRSYM    DATA     BIT       SMB0CN0_ACKRQ
      000000F1H   SFRSYM    DATA     BYTE      P0MDIN
      000000AFH   SFRSYM    DATA     BYTE      CLU0FN
      00000088H.3 SFRSYM    DATA     BIT       SMB1CN0_ACKRQ
      00000098H.4 SFRSYM    DATA     BIT       SCON0_REN
      000000ACH   SFRSYM    DATA     BYTE      SMB0TC
      000000F2H   SFRSYM    DATA     BYTE      P1MDIN
      000000B2H   SFRSYM    DATA     BYTE      CLU1FN
      000000C8H.4 SFRSYM    DATA     BIT       SCON1_REN
LX51 LINKER/LOCATER V4.66.97.0                                                        02/23/2023  16:00:17  PAGE 27


      000000B9H   SFRSYM    DATA     BYTE      SMB1TC
      000000F3H   SFRSYM    DATA     BYTE      P2MDIN
      000000B5H   SFRSYM    DATA     BYTE      CLU2FN
      000000C0H.4 SFRSYM    DATA     BIT       SMB0CN0_STO
      000000F4H   SFRSYM    DATA     BYTE      P3MDIN
      000000BEH   SFRSYM    DATA     BYTE      CLU3FN
      00000088H.4 SFRSYM    DATA     BIT       SMB1CN0_STO
      00000096H   SFRSYM    DATA     BYTE      SBRLH1
      000000FEH   SFRSYM    DATA     BYTE      P0MASK
      000000D8H.5 SFRSYM    DATA     BIT       UART1FCN1_TXHOLD
      000000EEH   SFRSYM    DATA     BYTE      P1MASK
      000000FCH   SFRSYM    DATA     BYTE      P2MASK
      000000D0H.3 SFRSYM    DATA     BIT       PSW_RS0
      000000D8H.7 SFRSYM    DATA     BIT       PCA0CN0_CF
      0000009EH   SFRSYM    DATA     BYTE      PCA0CENT
      000000D2H   SFRSYM    DATA     BYTE      CRC0ST
      000000F8H.4 SFRSYM    DATA     BIT       SPI0CN0_RXOVRN
      000000D0H.4 SFRSYM    DATA     BIT       PSW_RS1
      00000095H   SFRSYM    DATA     BYTE      SBRLL1
      000000C8H.2 SFRSYM    DATA     BIT       SCON1_RBX
      00000091H   SFRSYM    DATA     BYTE      DAC0CF0
      000000C8H.0 SFRSYM    DATA     BIT       TMR2CN0_T2XCLK0
      00000092H   SFRSYM    DATA     BYTE      DAC0CF1
      000000B9H   SFRSYM    DATA     BYTE      ADC0CF1
      000000C8H.1 SFRSYM    DATA     BIT       TMR2CN0_T2XCLK1
      000000C8H.3 SFRSYM    DATA     BIT       SCON1_TBX
      000000E8H.7 SFRSYM    DATA     BIT       ADC0CN0_ADEN
      00000089H   SFRSYM    DATA     BYTE      TMOD
      00000088H   SFRSYM    DATA     BYTE      TCON
      000000DFH   SFRSYM    DATA     BYTE      ADC0CF2
      000000CFH   SFRSYM    DATA     BYTE      CRC0FLIP
      000000D0H.0 SFRSYM    DATA     BIT       PSW_PARITY
      000000A8H.4 SFRSYM    DATA     BIT       IE_ES0
      0000009FH   SFRSYM    DATA     BYTE      CMP0MX
      00000098H.0 SFRSYM    DATA     BIT       TMR4CN0_T4XCLK0
      000000A8H.1 SFRSYM    DATA     BIT       IE_ET0
      000000AAH   SFRSYM    DATA     BYTE      CMP1MX
      00000098H.1 SFRSYM    DATA     BIT       TMR4CN0_T4XCLK1
      000000A8H.3 SFRSYM    DATA     BIT       IE_ET1
      00000099H   SFRSYM    DATA     WORD      PWMCP0
      000000D4H   SFRSYM    DATA     BYTE      P0SKIP
      000000D1H   SFRSYM    DATA     BYTE      CLOUT0
      000000D8H.0 SFRSYM    DATA     BIT       UART1FCN1_RIE
      000000C0H.0 SFRSYM    DATA     BIT       TMR5CN0_T5XCLK0
      000000A8H.5 SFRSYM    DATA     BIT       IE_ET2
      000000B5H   SFRSYM    DATA     WORD      PWMCP1
      000000D5H   SFRSYM    DATA     BYTE      P1SKIP
      000000C0H.1 SFRSYM    DATA     BIT       TMR5CN0_T5XCLK1
      000000BDH   SFRSYM    DATA     WORD      PWMCP2
      000000CCH   SFRSYM    DATA     BYTE      P2SKIP
      00000084H   SFRSYM    DATA     BYTE      CLU0MX
      000000E8H   SFRSYM    DATA     BYTE      ADC0CN0
      000000D8H.4 SFRSYM    DATA     BIT       UART1FCN1_TIE
      000000A8H.0 SFRSYM    DATA     BIT       IE_EX0
      00000085H   SFRSYM    DATA     BYTE      CLU1MX
      000000B2H   SFRSYM    DATA     BYTE      ADC0CN1
      000000D8H.6 SFRSYM    DATA     BIT       PCA0CN0_CR
      000000A8H.2 SFRSYM    DATA     BIT       IE_EX1
      000000C4H   SFRSYM    DATA     BYTE      PWMH
      00000091H   SFRSYM    DATA     BYTE      CLU2MX
      000000B3H   SFRSYM    DATA     BYTE      ADC0CN2
      000000C8H.7 SFRSYM    DATA     BIT       SCON1_OVR
LX51 LINKER/LOCATER V4.66.97.0                                                        02/23/2023  16:00:17  PAGE 28


      000000AAH   SFRSYM    DATA     BYTE      PSTAT0
      000000AEH   SFRSYM    DATA     BYTE      CLU3MX
      00000098H.7 SFRSYM    DATA     BIT       SCON0_SMODE
      000000B5H   SFRSYM    DATA     BYTE      DEVICEID
      000000A9H   SFRSYM    DATA     BYTE      CLKSEL
      000000F8H.0 SFRSYM    DATA     BIT       SPI0CN0_SPIEN
      000000C3H   SFRSYM    DATA     BYTE      PWML
      00000085H   SFRSYM    DATA     BYTE      DAC0H
      000000F0H   SFRSYM    DATA     BYTE      B
      000000BEH   SFRSYM    DATA     BYTE      ADC0H
      000000CAH   SFRSYM    DATA     WORD      TMR2RL
      00000084H   SFRSYM    DATA     BYTE      DAC0L
      000000BDH   SFRSYM    DATA     BYTE      ADC0L
      00000092H   SFRSYM    DATA     WORD      TMR3RL
      000000A2H   SFRSYM    DATA     WORD      TMR4RL
      000000D8H   SFRSYM    DATA     BYTE      PCA0CN0
      000000E0H   SFRSYM    DATA     BYTE      ACC
      000000D2H   SFRSYM    DATA     WORD      TMR5RL
      000000D9H   SFRSYM    DATA     BYTE      UART0PCF
      000000FBH   SFRSYM    DATA     WORD      PCA0CP0
      000000DAH   SFRSYM    DATA     BYTE      UART1PCF
      000000E9H   SFRSYM    DATA     WORD      PCA0CP1
      000000EBH   SFRSYM    DATA     WORD      PCA0CP2
      000000CEH   SFRSYM    DATA     BYTE      CRC0CN0
      0000008CH   SFRSYM    DATA     BYTE      TH0
      00000086H   SFRSYM    DATA     BYTE      CRC0CN1
      000000B8H.4 SFRSYM    DATA     BIT       IP_PS0
      000000FAH   SFRSYM    DATA     BYTE      UART1FCT
      0000008DH   SFRSYM    DATA     BYTE      TH1
      000000FAH   SFRSYM    DATA     BYTE      PCA0H
      000000B8H.1 SFRSYM    DATA     BIT       IP_PT0
      000000C7H   SFRSYM    DATA     BYTE      CLIE0
      000000B8H.3 SFRSYM    DATA     BIT       IP_PT1
      000000B5H   SFRSYM    DATA     WORD      ADC0ASA
      000000E8H   SFRSYM    DATA     BYTE      CLIF0
      000000C0H.2 SFRSYM    DATA     BIT       SMB0CN0_ARBLOST
      000000B8H.5 SFRSYM    DATA     BIT       IP_PT2
      0000008AH   SFRSYM    DATA     BYTE      TL0
      00000088H.2 SFRSYM    DATA     BIT       SMB1CN0_ARBLOST
      000000D0H.5 SFRSYM    DATA     BIT       PSW_F0
      000000A8H.6 SFRSYM    DATA     BIT       IE_ESPI0
      0000008BH   SFRSYM    DATA     BYTE      TL1
      000000F9H   SFRSYM    DATA     BYTE      PCA0L
      000000C0H.0 SFRSYM    DATA     BIT       SMB0CN0_SI
      000000D0H.1 SFRSYM    DATA     BIT       PSW_F1
      00000080H.0 SFRSYM    DATA     BIT       P0_B0
      000000B8H.0 SFRSYM    DATA     BIT       IP_PX0
      00000088H.0 SFRSYM    DATA     BIT       SMB1CN0_SI
      00000090H.0 SFRSYM    DATA     BIT       P1_B0
      00000080H.1 SFRSYM    DATA     BIT       P0_B1
      000000B8H.2 SFRSYM    DATA     BIT       IP_PX1
      000000ABH   SFRSYM    DATA     WORD      PWMCPUD0
      0000009EH   SFRSYM    DATA     BYTE      UART1LIN
      0000009BH   SFRSYM    DATA     BYTE      CMP0CN0
      000000C6H   SFRSYM    DATA     BYTE      CLEN0
      00000088H.1 SFRSYM    DATA     BIT       TCON_IE0
      000000A0H.0 SFRSYM    DATA     BIT       P2_B0
      00000090H.1 SFRSYM    DATA     BIT       P1_B1
      00000080H.2 SFRSYM    DATA     BIT       P0_B2
      000000B2H   SFRSYM    DATA     WORD      PWMCPUD1
      000000BFH   SFRSYM    DATA     BYTE      CMP1CN0
      00000099H   SFRSYM    DATA     BYTE      CMP0CN1
LX51 LINKER/LOCATER V4.66.97.0                                                        02/23/2023  16:00:17  PAGE 29


      00000088H.3 SFRSYM    DATA     BIT       TCON_IE1
      000000B0H.0 SFRSYM    DATA     BIT       P3_B0
      000000A0H.1 SFRSYM    DATA     BIT       P2_B1
      00000090H.2 SFRSYM    DATA     BIT       P1_B2
      00000080H.3 SFRSYM    DATA     BIT       P0_B3
      000000B9H   SFRSYM    DATA     WORD      PWMCPUD2
      000000C0H   SFRSYM    DATA     BYTE      SMB0CN0
      000000A4H   SFRSYM    DATA     BYTE      CP0CN
      000000ACH   SFRSYM    DATA     BYTE      CMP1CN1
      000000B0H.1 SFRSYM    DATA     BIT       P3_B1
      000000A0H.2 SFRSYM    DATA     BIT       P2_B2
      00000090H.3 SFRSYM    DATA     BIT       P1_B3
      00000080H.4 SFRSYM    DATA     BIT       P0_B4
      00000088H   SFRSYM    DATA     BYTE      SMB1CN0
      000000B0H.2 SFRSYM    DATA     BIT       P3_B2
      000000A0H.3 SFRSYM    DATA     BIT       P2_B3
      00000090H.4 SFRSYM    DATA     BIT       P1_B4
      00000080H.5 SFRSYM    DATA     BIT       P0_B5
      000000D8H.1 SFRSYM    DATA     BIT       UART1FCN1_RXTO0
      000000B0H.3 SFRSYM    DATA     BIT       P3_B3
      000000A0H.4 SFRSYM    DATA     BIT       P2_B4
      00000090H.5 SFRSYM    DATA     BIT       P1_B5
      00000080H.6 SFRSYM    DATA     BIT       P0_B6
      000000C5H   SFRSYM    DATA     WORD      PWMLIM
      000000EEH   SFRSYM    DATA     BYTE      EIP1H
      000000D8H.2 SFRSYM    DATA     BIT       UART1FCN1_RXTO1
      000000B0H.4 SFRSYM    DATA     BIT       P3_B4
      000000A0H.5 SFRSYM    DATA     BIT       P2_B5
      00000090H.6 SFRSYM    DATA     BIT       P1_B6
      00000080H.7 SFRSYM    DATA     BIT       P0_B7
      000000C5H   SFRSYM    DATA     BYTE      SMB0RXLN
      000000F6H   SFRSYM    DATA     BYTE      EIP2H
      000000B0H.5 SFRSYM    DATA     BIT       P3_B5
      000000A0H.6 SFRSYM    DATA     BIT       P2_B6
      00000090H.7 SFRSYM    DATA     BIT       P1_B7
      000000BCH   SFRSYM    DATA     BYTE      SMB1RXLN
      000000B0H.6 SFRSYM    DATA     BIT       P3_B6
      000000A0H.7 SFRSYM    DATA     BIT       P2_B7
      0000008AH   SFRSYM    DATA     BYTE      DAC0ALT
      000000B0H.7 SFRSYM    DATA     BIT       P3_B7
      0000009BH   SFRSYM    DATA     BYTE      PWMSTATUS
      00000083H   SFRSYM    DATA     BYTE      DPH
      000000C4H   SFRSYM    DATA     BYTE      ADC0GTH
      000000C8H.7 SFRSYM    DATA     BIT       TMR2CN0_TF2H
      000000C8H.3 SFRSYM    DATA     BIT       TMR2CN0_T2SPLIT
      000000D0H.6 SFRSYM    DATA     BIT       PSW_AC
      000000F8H   SFRSYM    DATA     BYTE      SPI0CN0
      000000D6H   SFRSYM    DATA     BYTE      HFO0CAL
      00000088H.5 SFRSYM    DATA     BIT       TCON_TF0
      00000098H.0 SFRSYM    DATA     BIT       SCON0_RI
      00000082H   SFRSYM    DATA     BYTE      DPL
      00000088H.7 SFRSYM    DATA     BIT       TCON_TF1
      000000C8H.0 SFRSYM    DATA     BIT       SCON1_RI
      00000099H   SFRSYM    DATA     BYTE      SBUF0
      00000087H   SFRSYM    DATA     BYTE      PCON0
      000000F2H   SFRSYM    DATA     BYTE      IPH
      000000C3H   SFRSYM    DATA     BYTE      ADC0GTL
      00000098H.7 SFRSYM    DATA     BIT       TMR4CN0_TF4H
      00000098H.3 SFRSYM    DATA     BIT       TMR4CN0_T4SPLIT
      000000C8H.6 SFRSYM    DATA     BIT       TMR2CN0_TF2L
      00000098H.1 SFRSYM    DATA     BIT       SCON0_TI
      00000092H   SFRSYM    DATA     BYTE      SBUF1
LX51 LINKER/LOCATER V4.66.97.0                                                        02/23/2023  16:00:17  PAGE 30


      000000CDH   SFRSYM    DATA     BYTE      PCON1
      000000C6H   SFRSYM    DATA     BYTE      ADC0LTH
      00000088H.0 SFRSYM    DATA     BIT       TCON_IT0
      000000C8H.1 SFRSYM    DATA     BIT       SCON1_TI
      000000EFH   SFRSYM    DATA     BYTE      RSTSRC
      000000FDH   SFRSYM    DATA     BYTE      P0MAT
      000000CBH   SFRSYM    DATA     BYTE      CRC0DAT
      000000C0H.7 SFRSYM    DATA     BIT       TMR5CN0_TF5H
      000000C0H.3 SFRSYM    DATA     BIT       TMR5CN0_T5SPLIT
      00000088H.2 SFRSYM    DATA     BIT       TCON_IT1
      000000D7H   SFRSYM    DATA     BYTE      SFRSTACK
      00000098H   SFRSYM    DATA     BYTE      SCON0
      000000F6H   SFRSYM    DATA     BYTE      PRTDRV
      000000EDH   SFRSYM    DATA     BYTE      P1MAT
      000000E8H.3 SFRSYM    DATA     BIT       ADC0CN0_ADWINT
      00000093H   SFRSYM    DATA     BYTE      SMOD1
      000000C8H   SFRSYM    DATA     BYTE      SCON1
      000000FBH   SFRSYM    DATA     BYTE      P2MAT
      00000098H.6 SFRSYM    DATA     BIT       TMR4CN0_TF4L
      000000E8H.4 SFRSYM    DATA     BIT       ADC0CN0_ADBUSY
      000000D6H   SFRSYM    DATA     BYTE      SMB0ADM
      000000C5H   SFRSYM    DATA     BYTE      ADC0LTL
      000000F8H.5 SFRSYM    DATA     BIT       SPI0CN0_MODF
      000000B8H.6 SFRSYM    DATA     BIT       IP_PSPI0
      000000E8H.1 SFRSYM    DATA     BIT       ADC0CN0_ADGN0
      000000FFH   SFRSYM    DATA     BYTE      SMB1ADM
      0000009CH   SFRSYM    DATA     BYTE      PCA0CLR
      000000C0H.6 SFRSYM    DATA     BIT       TMR5CN0_TF5L
      000000E8H.2 SFRSYM    DATA     BIT       ADC0CN0_ADGN1
      000000C8H   SFRSYM    DATA     BYTE      TMR2CN0
      000000E3H   SFRSYM    DATA     BYTE      PWMCKDIV
      00000091H   SFRSYM    DATA     BYTE      TMR3CN0
      000000FDH   SFRSYM    DATA     BYTE      TMR2CN1
      00000098H   SFRSYM    DATA     BYTE      TMR4CN0
      000000FEH   SFRSYM    DATA     BYTE      TMR3CN1
      000000C0H   SFRSYM    DATA     BYTE      TMR5CN0
      000000FFH   SFRSYM    DATA     BYTE      TMR4CN1
      000000D7H   SFRSYM    DATA     BYTE      SMB0ADR
      00000088H.4 SFRSYM    DATA     BIT       TCON_TR0
      000000F1H   SFRSYM    DATA     BYTE      TMR5CN1
      000000BDH   SFRSYM    DATA     BYTE      SMB1ADR
      000000C8H.4 SFRSYM    DATA     BIT       TMR2CN0_TF2CEN
      00000088H.6 SFRSYM    DATA     BIT       TCON_TR1
      000000C2H   SFRSYM    DATA     BYTE      SMB0DAT
      000000CFH   SFRSYM    DATA     BYTE      TMR2H
      000000A1H   SFRSYM    DATA     BYTE      SPI0CFG
      000000BBH   SFRSYM    DATA     BYTE      SMB1DAT
      00000095H   SFRSYM    DATA     BYTE      TMR3H
      000000D3H   SFRSYM    DATA     BYTE      CRC0CNT
      000000A5H   SFRSYM    DATA     BYTE      TMR4H
      00000098H.4 SFRSYM    DATA     BIT       TMR4CN0_TF4CEN
      000000D5H   SFRSYM    DATA     BYTE      TMR5H
      000000EFH   SFRSYM    DATA     BYTE      SMB0FCT
      00000096H   SFRSYM    DATA     BYTE      PCA0POL
      000000CEH   SFRSYM    DATA     BYTE      TMR2L
      000000F5H   SFRSYM    DATA     BYTE      SMB1FCT
      000000C0H.4 SFRSYM    DATA     BIT       TMR5CN0_TF5CEN
      000000F8H.7 SFRSYM    DATA     BIT       SPI0CN0_SPIF
      00000094H   SFRSYM    DATA     BYTE      TMR3L
      000000A8H.7 SFRSYM    DATA     BIT       IE_EA
      000000C3H   SFRSYM    DATA     WORD      PWM
      000000A4H   SFRSYM    DATA     BYTE      TMR4L
LX51 LINKER/LOCATER V4.66.97.0                                                        02/23/2023  16:00:17  PAGE 31


      000000D4H   SFRSYM    DATA     BYTE      TMR5L
      000000AFH   SFRSYM    DATA     BYTE      CLKGRP0
      000000C8H.5 SFRSYM    DATA     BIT       TMR2CN0_TF2LEN
      000000F8H.6 SFRSYM    DATA     BIT       SPI0CN0_WCOL
      000000C2H   SFRSYM    DATA     BYTE      PWMCFG0
      000000F8H.2 SFRSYM    DATA     BIT       SPI0CN0_NSSMD0
      000000D0H.7 SFRSYM    DATA     BIT       PSW_CY
      0000009DH   SFRSYM    DATA     BYTE      UART1FCN0
      000000DFH   SFRSYM    DATA     BYTE      SPI0PCF
      000000A3H   SFRSYM    DATA     BYTE      SPI0DAT
      000000C9H   SFRSYM    DATA     BYTE      PWMCFG1
      000000F8H.3 SFRSYM    DATA     BIT       SPI0CN0_NSSMD1
      000000BDH   SFRSYM    DATA     WORD      ADC0
      000000D8H   SFRSYM    DATA     BYTE      UART1FCN1
      000000D1H   SFRSYM    DATA     BYTE      PWMCFG2
      000000E8H.0 SFRSYM    DATA     BIT       CLIF0_C0FIF
      000000DFH   SFRSYM    DATA     BYTE      PWMCFG3
      00000098H.5 SFRSYM    DATA     BIT       TMR4CN0_TF4LEN
      000000E8H.2 SFRSYM    DATA     BIT       CLIF0_C1FIF
      000000D0H   SFRSYM    DATA     BYTE      PSW
      000000F7H   SFRSYM    DATA     BYTE      PCA0PWM
      000000E8H.4 SFRSYM    DATA     BIT       CLIF0_C2FIF
      000000F7H   SFRSYM    DATA     BYTE      SPI0FCT
      000000B6H   SFRSYM    DATA     BYTE      REVID
      000000C0H.5 SFRSYM    DATA     BIT       TMR5CN0_TF5LEN
      000000E8H.6 SFRSYM    DATA     BIT       CLIF0_C3FIF
      000000CCH   SFRSYM    DATA     BYTE      HFO0TRIM0
      000000B7H   SFRSYM    DATA     BYTE      FLKEY

      010006CEH   BLOCK     CODE     ---       LVL=0
      010006D7H   BLOCK     CODE     NEAR LAB  LVL=1
      00000007H   SYMBOL    DATA     BYTE      pressed
      ---         BLOCKEND  ---      ---       LVL=1
      010006CEH   LINE      CODE     ---       #26
      010006D7H   LINE      CODE     ---       #28
      010006D9H   LINE      CODE     ---       #29
      010006E1H   LINE      CODE     ---       #30
      010006E1H   LINE      CODE     ---       #31
      010006E2H   LINE      CODE     ---       #32
      010006E2H   LINE      CODE     ---       #34
      010006E7H   LINE      CODE     ---       #35
      010006E7H   LINE      CODE     ---       #36
      010006E9H   LINE      CODE     ---       #37
      010006ECH   LINE      CODE     ---       #38
      010006ECH   LINE      CODE     ---       #39
      ---         BLOCKEND  ---      ---       LVL=0

      ---         MODULE    ---      ---       ?C_STARTUP
      01000000H   PUBLIC    CODE     NEAR LAB  ?C_STARTUP
      000000E0H   SFRSYM    DATA     BYTE      ACC
      000000F0H   SFRSYM    DATA     BYTE      B
      00000083H   SFRSYM    DATA     BYTE      DPH
      00000082H   SFRSYM    DATA     BYTE      DPL
      000000A0H   SFRSYM    DATA     BYTE      PPAGE_SFR
      00000081H   SFRSYM    DATA     BYTE      SP
      00000000H   SYMBOL    NUMBER   ---       IBPSTACK
      00000100H   SYMBOL    NUMBER   ---       IBPSTACKTOP
      00000080H   SYMBOL    NUMBER   ---       IDATALEN
      0100025FH   SYMBOL    CODE     NEAR LAB  IDATALOOP
      00000000H   SYMBOL    NUMBER   ---       PBPSTACK
      00000100H   SYMBOL    NUMBER   ---       PBPSTACKTOP
      00000000H   SYMBOL    NUMBER   ---       PDATALEN
LX51 LINKER/LOCATER V4.66.97.0                                                        02/23/2023  16:00:17  PAGE 32


      00000000H   SYMBOL    NUMBER   ---       PDATASTART
      00000000H   SYMBOL    NUMBER   ---       PPAGE
      00000000H   SYMBOL    NUMBER   ---       PPAGEENABLE
      0100025CH   SYMBOL    CODE     NEAR LAB  STARTUP1
      00000000H   SYMBOL    NUMBER   ---       XBPSTACK
      00010000H   SYMBOL    NUMBER   ---       XBPSTACKTOP
      00000000H   SYMBOL    NUMBER   ---       XDATALEN
      00000000H   SYMBOL    NUMBER   ---       XDATASTART

      01000000H   BLOCK     CODE     NEAR LAB  LVL=0
      01000000H   LINE      CODE     ---       #126
      ---         BLOCKEND  ---      ---       LVL=0

      0100025CH   BLOCK     CODE     NEAR LAB  LVL=0
      0100025CH   LINE      CODE     ---       #138
      0100025EH   LINE      CODE     ---       #139
      0100025FH   LINE      CODE     ---       #140
      01000260H   LINE      CODE     ---       #141
      01000262H   LINE      CODE     ---       #190
      01000265H   LINE      CODE     ---       #201
      ---         BLOCKEND  ---      ---       LVL=0

      ---         MODULE    ---      ---       COMMAND_HANDLER
      00000008H   PUBLIC    DATA     ---       command_table
      010002E8H   PUBLIC    CODE     ---       command_handler
      010007E5H   PUBLIC    CODE     ---       _empty_command
      000000A2H   SFRSYM    DATA     BYTE      SPI0CKR
      00000080H   SFRSYM    DATA     BYTE      P0
      000000C8H.6 SFRSYM    DATA     BIT       SCON1_PERR
      000000D0H.2 SFRSYM    DATA     BIT       PSW_OV
      00000090H   SFRSYM    DATA     BYTE      P1
      000000F8H.1 SFRSYM    DATA     BIT       SPI0CN0_TXNF
      00000097H   SFRSYM    DATA     BYTE      WDTCN
      0000009AH   SFRSYM    DATA     BYTE      PWMCPH0
      000000A0H   SFRSYM    DATA     BYTE      P2
      000000B6H   SFRSYM    DATA     BYTE      PWMCPH1
      000000B0H   SFRSYM    DATA     BYTE      P3
      0000009FH   SFRSYM    DATA     BYTE      PWMIE
      000000BEH   SFRSYM    DATA     BYTE      PWMCPH2
      000000C0H.7 SFRSYM    DATA     BIT       SMB0CN0_MASTER
      000000F9H   SFRSYM    DATA     WORD      PCA0
      0000009DH   SFRSYM    DATA     BYTE      PWMIF
      000000E6H   SFRSYM    DATA     BYTE      EIE1
      00000088H.7 SFRSYM    DATA     BIT       SMB1CN0_MASTER
      000000C0H.1 SFRSYM    DATA     BIT       SMB0CN0_ACK
      000000E8H.1 SFRSYM    DATA     BIT       CLIF0_C0RIF
      00000099H   SFRSYM    DATA     BYTE      PWMCPL0
      000000F3H   SFRSYM    DATA     BYTE      EIE2
      00000088H.1 SFRSYM    DATA     BIT       SMB1CN0_ACK
      000000E8H.3 SFRSYM    DATA     BIT       CLIF0_C1RIF
      000000B5H   SFRSYM    DATA     BYTE      PWMCPL1
      000000E8H.5 SFRSYM    DATA     BIT       CLIF0_C2RIF
      000000BDH   SFRSYM    DATA     BYTE      PWMCPL2
      0000008FH   SFRSYM    DATA     BYTE      PSCTL
      000000E8H.7 SFRSYM    DATA     BIT       CLIF0_C3RIF
      000000E4H   SFRSYM    DATA     BYTE      IT01CF
      000000C0H.6 SFRSYM    DATA     BIT       SMB0CN0_TXMODE
      000000E2H   SFRSYM    DATA     BYTE      PWMDTINLIM
      000000ADH   SFRSYM    DATA     BYTE      DERIVID
      00000088H.6 SFRSYM    DATA     BIT       SMB1CN0_TXMODE
      000000A7H   SFRSYM    DATA     BYTE      SFRPAGE
      000000E1H   SFRSYM    DATA     BYTE      PWMDTIPLIM
LX51 LINKER/LOCATER V4.66.97.0                                                        02/23/2023  16:00:17  PAGE 33


      000000A4H   SFRSYM    DATA     BYTE      P0MDOUT
      000000A5H   SFRSYM    DATA     BYTE      P1MDOUT
      000000E8H.5 SFRSYM    DATA     BIT       ADC0CN0_ADINT
      000000CBH   SFRSYM    DATA     BYTE      TMR2RLH
      000000A6H   SFRSYM    DATA     BYTE      P2MDOUT
      000000A8H   SFRSYM    DATA     BYTE      IE
      00000093H   SFRSYM    DATA     BYTE      TMR3RLH
      0000009CH   SFRSYM    DATA     BYTE      P3MDOUT
      000000A3H   SFRSYM    DATA     BYTE      TMR4RLH
      000000BBH   SFRSYM    DATA     BYTE      EIP1
      000000D3H   SFRSYM    DATA     BYTE      TMR5RLH
      000000EDH   SFRSYM    DATA     BYTE      EIP2
      00000098H.2 SFRSYM    DATA     BIT       SCON0_RB8
      000000CAH   SFRSYM    DATA     BYTE      TMR2RLL
      000000FCH   SFRSYM    DATA     BYTE      PCA0CPH0
      00000092H   SFRSYM    DATA     BYTE      TMR3RLL
      000000EAH   SFRSYM    DATA     BYTE      PCA0CPH1
      00000098H.3 SFRSYM    DATA     BIT       SCON0_TB8
      000000F0H.0 SFRSYM    DATA     BIT       B_B0
      00000082H   SFRSYM    DATA     WORD      DP
      000000A2H   SFRSYM    DATA     BYTE      TMR4RLL
      000000ECH   SFRSYM    DATA     BYTE      PCA0CPH2
      000000F0H.1 SFRSYM    DATA     BIT       B_B1
      000000C3H   SFRSYM    DATA     WORD      ADC0GT
      000000D2H   SFRSYM    DATA     BYTE      TMR5RLL
      000000D8H.3 SFRSYM    DATA     BIT       UART1FCN1_RFRQ
      000000F0H.2 SFRSYM    DATA     BIT       B_B2
      000000BCH   SFRSYM    DATA     BYTE      SFRPGCN
      000000FBH   SFRSYM    DATA     BYTE      PCA0CPL0
      000000F0H.3 SFRSYM    DATA     BIT       B_B3
      000000D9H   SFRSYM    DATA     BYTE      PCA0MD
      000000DAH   SFRSYM    DATA     BYTE      PCA0CPM0
      000000E9H   SFRSYM    DATA     BYTE      PCA0CPL1
      000000D8H.7 SFRSYM    DATA     BIT       UART1FCN1_TFRQ
      000000F0H.4 SFRSYM    DATA     BIT       B_B4
      000000DBH   SFRSYM    DATA     BYTE      PCA0CPM1
      000000EBH   SFRSYM    DATA     BYTE      PCA0CPL2
      000000A1H   SFRSYM    DATA     BYTE      ADC0ASCF
      000000B6H   SFRSYM    DATA     BYTE      ADC0ASAH
      000000F0H.5 SFRSYM    DATA     BIT       B_B5
      000000E8H.6 SFRSYM    DATA     BIT       ADC0CN0_IPOEN
      000000E8H.0 SFRSYM    DATA     BIT       ADC0CN0_TEMPE
      000000DCH   SFRSYM    DATA     BYTE      PCA0CPM2
      000000B8H   SFRSYM    DATA     BYTE      IP
      000000F0H.6 SFRSYM    DATA     BIT       B_B6
      000000C5H   SFRSYM    DATA     WORD      ADC0LT
      000000D8H.6 SFRSYM    DATA     BIT       UART1FCN1_TXNF
      00000098H.5 SFRSYM    DATA     BIT       SCON0_MCE
      000000F0H.7 SFRSYM    DATA     BIT       B_B7
      000000C3H   SFRSYM    DATA     BYTE      SMB0FCN0
      000000ACH   SFRSYM    DATA     BYTE      PWMCPUDH0
      000000B5H   SFRSYM    DATA     BYTE      ADC0ASAL
      000000E1H   SFRSYM    DATA     BYTE      XBR0
      000000ADH   SFRSYM    DATA     BYTE      SMB1FCN0
      000000C4H   SFRSYM    DATA     BYTE      SMB0FCN1
      000000C1H   SFRSYM    DATA     BYTE      SMB0CF
      000000B3H   SFRSYM    DATA     BYTE      PWMCPUDH1
      000000E2H   SFRSYM    DATA     BYTE      XBR1
      000000ABH   SFRSYM    DATA     BYTE      SMB1FCN1
      000000BAH   SFRSYM    DATA     BYTE      SMB1CF
      000000BAH   SFRSYM    DATA     BYTE      PWMCPUDH2
      000000C1H   SFRSYM    DATA     BYTE      PFE0CN
LX51 LINKER/LOCATER V4.66.97.0                                                        02/23/2023  16:00:17  PAGE 34


      000000E7H   SFRSYM    DATA     BYTE      EMI0CN
      000000C0H.5 SFRSYM    DATA     BIT       SMB0CN0_STA
      000000E3H   SFRSYM    DATA     BYTE      XBR2
      000000B1H   SFRSYM    DATA     BYTE      CLU0CF
      000000BBH   SFRSYM    DATA     BYTE      ADC0MX
      00000088H.5 SFRSYM    DATA     BIT       SMB1CN0_STA
      000000E0H.0 SFRSYM    DATA     BIT       ACC_ACC0
      000000D1H   SFRSYM    DATA     BYTE      REF0CN
      000000ABH   SFRSYM    DATA     BYTE      PWMCPUDL0
      000000EFH   SFRSYM    DATA     BYTE      HFO0CN
      000000B3H   SFRSYM    DATA     BYTE      CLU1CF
      0000008EH   SFRSYM    DATA     BYTE      CKCON0
      000000E0H.1 SFRSYM    DATA     BIT       ACC_ACC1
      000000C9H   SFRSYM    DATA     BYTE      REG0CN
      000000C6H   SFRSYM    DATA     BYTE      PWMLIMH
      000000B2H   SFRSYM    DATA     BYTE      PWMCPUDL1
      000000CAH   SFRSYM    DATA     BYTE      CRC0IN
      000000B6H   SFRSYM    DATA     BYTE      CLU2CF
      000000A6H   SFRSYM    DATA     BYTE      CKCON1
      000000C8H.2 SFRSYM    DATA     BIT       TMR2CN0_TR2
      000000E0H.2 SFRSYM    DATA     BIT       ACC_ACC2
      000000B9H   SFRSYM    DATA     BYTE      PWMCPUDL2
      000000BFH   SFRSYM    DATA     BYTE      CLU3CF
      000000E0H.3 SFRSYM    DATA     BIT       ACC_ACC3
      00000081H   SFRSYM    DATA     BYTE      SP
      0000009DH   SFRSYM    DATA     BYTE      CMP0MD
      000000E0H.4 SFRSYM    DATA     BIT       ACC_ACC4
      000000B1H   SFRSYM    DATA     BYTE      LFO0CN
      000000ABH   SFRSYM    DATA     BYTE      CMP1MD
      000000D8H.0 SFRSYM    DATA     BIT       PCA0CN0_CCF0
      000000E0H.5 SFRSYM    DATA     BIT       ACC_ACC5
      000000C5H   SFRSYM    DATA     BYTE      PWMLIML
      00000098H.2 SFRSYM    DATA     BIT       TMR4CN0_TR4
      000000D8H.1 SFRSYM    DATA     BIT       PCA0CN0_CCF1
      000000E0H.6 SFRSYM    DATA     BIT       ACC_ACC6
      000000CEH   SFRSYM    DATA     WORD      TMR2
      0000009AH   SFRSYM    DATA     BYTE      SPI0FCN0
      000000C7H   SFRSYM    DATA     BYTE      ADC0ASCT
      000000D8H.2 SFRSYM    DATA     BIT       PCA0CN0_CCF2
      000000E0H.7 SFRSYM    DATA     BIT       ACC_ACC7
      00000094H   SFRSYM    DATA     WORD      TMR3
      0000009BH   SFRSYM    DATA     BYTE      SPI0FCN1
      000000C0H.2 SFRSYM    DATA     BIT       TMR5CN0_TR5
      000000A4H   SFRSYM    DATA     WORD      TMR4
      00000094H   SFRSYM    DATA     BYTE      SBCON1
      000000D4H   SFRSYM    DATA     WORD      TMR5
      000000C0H.3 SFRSYM    DATA     BIT       SMB0CN0_ACKRQ
      000000F1H   SFRSYM    DATA     BYTE      P0MDIN
      000000AFH   SFRSYM    DATA     BYTE      CLU0FN
      00000088H.3 SFRSYM    DATA     BIT       SMB1CN0_ACKRQ
      00000098H.4 SFRSYM    DATA     BIT       SCON0_REN
      000000ACH   SFRSYM    DATA     BYTE      SMB0TC
      000000F2H   SFRSYM    DATA     BYTE      P1MDIN
      000000B2H   SFRSYM    DATA     BYTE      CLU1FN
      000000C8H.4 SFRSYM    DATA     BIT       SCON1_REN
      000000B9H   SFRSYM    DATA     BYTE      SMB1TC
      000000F3H   SFRSYM    DATA     BYTE      P2MDIN
      000000B5H   SFRSYM    DATA     BYTE      CLU2FN
      000000C0H.4 SFRSYM    DATA     BIT       SMB0CN0_STO
      000000F4H   SFRSYM    DATA     BYTE      P3MDIN
      000000BEH   SFRSYM    DATA     BYTE      CLU3FN
      00000088H.4 SFRSYM    DATA     BIT       SMB1CN0_STO
LX51 LINKER/LOCATER V4.66.97.0                                                        02/23/2023  16:00:17  PAGE 35


      00000096H   SFRSYM    DATA     BYTE      SBRLH1
      000000FEH   SFRSYM    DATA     BYTE      P0MASK
      000000D8H.5 SFRSYM    DATA     BIT       UART1FCN1_TXHOLD
      000000EEH   SFRSYM    DATA     BYTE      P1MASK
      000000FCH   SFRSYM    DATA     BYTE      P2MASK
      000000D0H.3 SFRSYM    DATA     BIT       PSW_RS0
      000000D8H.7 SFRSYM    DATA     BIT       PCA0CN0_CF
      0000009EH   SFRSYM    DATA     BYTE      PCA0CENT
      000000D2H   SFRSYM    DATA     BYTE      CRC0ST
      000000F8H.4 SFRSYM    DATA     BIT       SPI0CN0_RXOVRN
      000000D0H.4 SFRSYM    DATA     BIT       PSW_RS1
      00000095H   SFRSYM    DATA     BYTE      SBRLL1
      000000C8H.2 SFRSYM    DATA     BIT       SCON1_RBX
      00000091H   SFRSYM    DATA     BYTE      DAC0CF0
      000000C8H.0 SFRSYM    DATA     BIT       TMR2CN0_T2XCLK0
      00000092H   SFRSYM    DATA     BYTE      DAC0CF1
      000000B9H   SFRSYM    DATA     BYTE      ADC0CF1
      000000C8H.1 SFRSYM    DATA     BIT       TMR2CN0_T2XCLK1
      000000C8H.3 SFRSYM    DATA     BIT       SCON1_TBX
      000000E8H.7 SFRSYM    DATA     BIT       ADC0CN0_ADEN
      00000089H   SFRSYM    DATA     BYTE      TMOD
      00000088H   SFRSYM    DATA     BYTE      TCON
      000000DFH   SFRSYM    DATA     BYTE      ADC0CF2
      000000CFH   SFRSYM    DATA     BYTE      CRC0FLIP
      000000D0H.0 SFRSYM    DATA     BIT       PSW_PARITY
      000000A8H.4 SFRSYM    DATA     BIT       IE_ES0
      0000009FH   SFRSYM    DATA     BYTE      CMP0MX
      00000098H.0 SFRSYM    DATA     BIT       TMR4CN0_T4XCLK0
      000000A8H.1 SFRSYM    DATA     BIT       IE_ET0
      000000AAH   SFRSYM    DATA     BYTE      CMP1MX
      00000098H.1 SFRSYM    DATA     BIT       TMR4CN0_T4XCLK1
      000000A8H.3 SFRSYM    DATA     BIT       IE_ET1
      00000099H   SFRSYM    DATA     WORD      PWMCP0
      000000D4H   SFRSYM    DATA     BYTE      P0SKIP
      000000D1H   SFRSYM    DATA     BYTE      CLOUT0
      000000D8H.0 SFRSYM    DATA     BIT       UART1FCN1_RIE
      000000C0H.0 SFRSYM    DATA     BIT       TMR5CN0_T5XCLK0
      000000A8H.5 SFRSYM    DATA     BIT       IE_ET2
      000000B5H   SFRSYM    DATA     WORD      PWMCP1
      000000D5H   SFRSYM    DATA     BYTE      P1SKIP
      000000C0H.1 SFRSYM    DATA     BIT       TMR5CN0_T5XCLK1
      000000BDH   SFRSYM    DATA     WORD      PWMCP2
      000000CCH   SFRSYM    DATA     BYTE      P2SKIP
      00000084H   SFRSYM    DATA     BYTE      CLU0MX
      000000E8H   SFRSYM    DATA     BYTE      ADC0CN0
      000000D8H.4 SFRSYM    DATA     BIT       UART1FCN1_TIE
      000000A8H.0 SFRSYM    DATA     BIT       IE_EX0
      00000085H   SFRSYM    DATA     BYTE      CLU1MX
      000000B2H   SFRSYM    DATA     BYTE      ADC0CN1
      000000D8H.6 SFRSYM    DATA     BIT       PCA0CN0_CR
      000000A8H.2 SFRSYM    DATA     BIT       IE_EX1
      000000C4H   SFRSYM    DATA     BYTE      PWMH
      00000091H   SFRSYM    DATA     BYTE      CLU2MX
      000000B3H   SFRSYM    DATA     BYTE      ADC0CN2
      000000C8H.7 SFRSYM    DATA     BIT       SCON1_OVR
      000000AAH   SFRSYM    DATA     BYTE      PSTAT0
      000000AEH   SFRSYM    DATA     BYTE      CLU3MX
      00000098H.7 SFRSYM    DATA     BIT       SCON0_SMODE
      000000B5H   SFRSYM    DATA     BYTE      DEVICEID
      000000A9H   SFRSYM    DATA     BYTE      CLKSEL
      000000F8H.0 SFRSYM    DATA     BIT       SPI0CN0_SPIEN
      000000C3H   SFRSYM    DATA     BYTE      PWML
LX51 LINKER/LOCATER V4.66.97.0                                                        02/23/2023  16:00:17  PAGE 36


      00000085H   SFRSYM    DATA     BYTE      DAC0H
      000000F0H   SFRSYM    DATA     BYTE      B
      000000BEH   SFRSYM    DATA     BYTE      ADC0H
      000000CAH   SFRSYM    DATA     WORD      TMR2RL
      00000084H   SFRSYM    DATA     BYTE      DAC0L
      000000BDH   SFRSYM    DATA     BYTE      ADC0L
      00000092H   SFRSYM    DATA     WORD      TMR3RL
      000000A2H   SFRSYM    DATA     WORD      TMR4RL
      000000D8H   SFRSYM    DATA     BYTE      PCA0CN0
      000000E0H   SFRSYM    DATA     BYTE      ACC
      000000D2H   SFRSYM    DATA     WORD      TMR5RL
      000000D9H   SFRSYM    DATA     BYTE      UART0PCF
      000000FBH   SFRSYM    DATA     WORD      PCA0CP0
      000000DAH   SFRSYM    DATA     BYTE      UART1PCF
      000000E9H   SFRSYM    DATA     WORD      PCA0CP1
      000000EBH   SFRSYM    DATA     WORD      PCA0CP2
      000000CEH   SFRSYM    DATA     BYTE      CRC0CN0
      0000008CH   SFRSYM    DATA     BYTE      TH0
      00000086H   SFRSYM    DATA     BYTE      CRC0CN1
      000000B8H.4 SFRSYM    DATA     BIT       IP_PS0
      000000FAH   SFRSYM    DATA     BYTE      UART1FCT
      0000008DH   SFRSYM    DATA     BYTE      TH1
      000000FAH   SFRSYM    DATA     BYTE      PCA0H
      000000B8H.1 SFRSYM    DATA     BIT       IP_PT0
      000000C7H   SFRSYM    DATA     BYTE      CLIE0
      000000B8H.3 SFRSYM    DATA     BIT       IP_PT1
      000000B5H   SFRSYM    DATA     WORD      ADC0ASA
      000000E8H   SFRSYM    DATA     BYTE      CLIF0
      000000C0H.2 SFRSYM    DATA     BIT       SMB0CN0_ARBLOST
      000000B8H.5 SFRSYM    DATA     BIT       IP_PT2
      0000008AH   SFRSYM    DATA     BYTE      TL0
      00000088H.2 SFRSYM    DATA     BIT       SMB1CN0_ARBLOST
      000000D0H.5 SFRSYM    DATA     BIT       PSW_F0
      000000A8H.6 SFRSYM    DATA     BIT       IE_ESPI0
      0000008BH   SFRSYM    DATA     BYTE      TL1
      000000F9H   SFRSYM    DATA     BYTE      PCA0L
      000000C0H.0 SFRSYM    DATA     BIT       SMB0CN0_SI
      000000D0H.1 SFRSYM    DATA     BIT       PSW_F1
      00000080H.0 SFRSYM    DATA     BIT       P0_B0
      000000B8H.0 SFRSYM    DATA     BIT       IP_PX0
      00000088H.0 SFRSYM    DATA     BIT       SMB1CN0_SI
      00000090H.0 SFRSYM    DATA     BIT       P1_B0
      00000080H.1 SFRSYM    DATA     BIT       P0_B1
      000000B8H.2 SFRSYM    DATA     BIT       IP_PX1
      000000ABH   SFRSYM    DATA     WORD      PWMCPUD0
      0000009EH   SFRSYM    DATA     BYTE      UART1LIN
      0000009BH   SFRSYM    DATA     BYTE      CMP0CN0
      000000C6H   SFRSYM    DATA     BYTE      CLEN0
      00000088H.1 SFRSYM    DATA     BIT       TCON_IE0
      000000A0H.0 SFRSYM    DATA     BIT       P2_B0
      00000090H.1 SFRSYM    DATA     BIT       P1_B1
      00000080H.2 SFRSYM    DATA     BIT       P0_B2
      000000B2H   SFRSYM    DATA     WORD      PWMCPUD1
      000000BFH   SFRSYM    DATA     BYTE      CMP1CN0
      00000099H   SFRSYM    DATA     BYTE      CMP0CN1
      00000088H.3 SFRSYM    DATA     BIT       TCON_IE1
      000000B0H.0 SFRSYM    DATA     BIT       P3_B0
      000000A0H.1 SFRSYM    DATA     BIT       P2_B1
      00000090H.2 SFRSYM    DATA     BIT       P1_B2
      00000080H.3 SFRSYM    DATA     BIT       P0_B3
      000000B9H   SFRSYM    DATA     WORD      PWMCPUD2
      000000C0H   SFRSYM    DATA     BYTE      SMB0CN0
LX51 LINKER/LOCATER V4.66.97.0                                                        02/23/2023  16:00:17  PAGE 37


      000000A4H   SFRSYM    DATA     BYTE      CP0CN
      000000ACH   SFRSYM    DATA     BYTE      CMP1CN1
      000000B0H.1 SFRSYM    DATA     BIT       P3_B1
      000000A0H.2 SFRSYM    DATA     BIT       P2_B2
      00000090H.3 SFRSYM    DATA     BIT       P1_B3
      00000080H.4 SFRSYM    DATA     BIT       P0_B4
      00000088H   SFRSYM    DATA     BYTE      SMB1CN0
      000000B0H.2 SFRSYM    DATA     BIT       P3_B2
      000000A0H.3 SFRSYM    DATA     BIT       P2_B3
      00000090H.4 SFRSYM    DATA     BIT       P1_B4
      00000080H.5 SFRSYM    DATA     BIT       P0_B5
      000000D8H.1 SFRSYM    DATA     BIT       UART1FCN1_RXTO0
      000000B0H.3 SFRSYM    DATA     BIT       P3_B3
      000000A0H.4 SFRSYM    DATA     BIT       P2_B4
      00000090H.5 SFRSYM    DATA     BIT       P1_B5
      00000080H.6 SFRSYM    DATA     BIT       P0_B6
      000000C5H   SFRSYM    DATA     WORD      PWMLIM
      000000EEH   SFRSYM    DATA     BYTE      EIP1H
      000000D8H.2 SFRSYM    DATA     BIT       UART1FCN1_RXTO1
      000000B0H.4 SFRSYM    DATA     BIT       P3_B4
      000000A0H.5 SFRSYM    DATA     BIT       P2_B5
      00000090H.6 SFRSYM    DATA     BIT       P1_B6
      00000080H.7 SFRSYM    DATA     BIT       P0_B7
      000000C5H   SFRSYM    DATA     BYTE      SMB0RXLN
      000000F6H   SFRSYM    DATA     BYTE      EIP2H
      000000B0H.5 SFRSYM    DATA     BIT       P3_B5
      000000A0H.6 SFRSYM    DATA     BIT       P2_B6
      00000090H.7 SFRSYM    DATA     BIT       P1_B7
      000000BCH   SFRSYM    DATA     BYTE      SMB1RXLN
      000000B0H.6 SFRSYM    DATA     BIT       P3_B6
      000000A0H.7 SFRSYM    DATA     BIT       P2_B7
      0000008AH   SFRSYM    DATA     BYTE      DAC0ALT
      000000B0H.7 SFRSYM    DATA     BIT       P3_B7
      0000009BH   SFRSYM    DATA     BYTE      PWMSTATUS
      00000083H   SFRSYM    DATA     BYTE      DPH
      000000C4H   SFRSYM    DATA     BYTE      ADC0GTH
      000000C8H.7 SFRSYM    DATA     BIT       TMR2CN0_TF2H
      000000C8H.3 SFRSYM    DATA     BIT       TMR2CN0_T2SPLIT
      000000D0H.6 SFRSYM    DATA     BIT       PSW_AC
      000000F8H   SFRSYM    DATA     BYTE      SPI0CN0
      000000D6H   SFRSYM    DATA     BYTE      HFO0CAL
      00000088H.5 SFRSYM    DATA     BIT       TCON_TF0
      00000098H.0 SFRSYM    DATA     BIT       SCON0_RI
      00000082H   SFRSYM    DATA     BYTE      DPL
      00000088H.7 SFRSYM    DATA     BIT       TCON_TF1
      000000C8H.0 SFRSYM    DATA     BIT       SCON1_RI
      00000099H   SFRSYM    DATA     BYTE      SBUF0
      00000087H   SFRSYM    DATA     BYTE      PCON0
      000000F2H   SFRSYM    DATA     BYTE      IPH
      000000C3H   SFRSYM    DATA     BYTE      ADC0GTL
      00000098H.7 SFRSYM    DATA     BIT       TMR4CN0_TF4H
      00000098H.3 SFRSYM    DATA     BIT       TMR4CN0_T4SPLIT
      000000C8H.6 SFRSYM    DATA     BIT       TMR2CN0_TF2L
      00000098H.1 SFRSYM    DATA     BIT       SCON0_TI
      00000092H   SFRSYM    DATA     BYTE      SBUF1
      000000CDH   SFRSYM    DATA     BYTE      PCON1
      000000C6H   SFRSYM    DATA     BYTE      ADC0LTH
      00000088H.0 SFRSYM    DATA     BIT       TCON_IT0
      000000C8H.1 SFRSYM    DATA     BIT       SCON1_TI
      000000EFH   SFRSYM    DATA     BYTE      RSTSRC
      000000FDH   SFRSYM    DATA     BYTE      P0MAT
      000000CBH   SFRSYM    DATA     BYTE      CRC0DAT
LX51 LINKER/LOCATER V4.66.97.0                                                        02/23/2023  16:00:17  PAGE 38


      000000C0H.7 SFRSYM    DATA     BIT       TMR5CN0_TF5H
      000000C0H.3 SFRSYM    DATA     BIT       TMR5CN0_T5SPLIT
      00000088H.2 SFRSYM    DATA     BIT       TCON_IT1
      000000D7H   SFRSYM    DATA     BYTE      SFRSTACK
      00000098H   SFRSYM    DATA     BYTE      SCON0
      000000F6H   SFRSYM    DATA     BYTE      PRTDRV
      000000EDH   SFRSYM    DATA     BYTE      P1MAT
      000000E8H.3 SFRSYM    DATA     BIT       ADC0CN0_ADWINT
      00000093H   SFRSYM    DATA     BYTE      SMOD1
      000000C8H   SFRSYM    DATA     BYTE      SCON1
      000000FBH   SFRSYM    DATA     BYTE      P2MAT
      00000098H.6 SFRSYM    DATA     BIT       TMR4CN0_TF4L
      000000E8H.4 SFRSYM    DATA     BIT       ADC0CN0_ADBUSY
      000000D6H   SFRSYM    DATA     BYTE      SMB0ADM
      000000C5H   SFRSYM    DATA     BYTE      ADC0LTL
      000000F8H.5 SFRSYM    DATA     BIT       SPI0CN0_MODF
      000000B8H.6 SFRSYM    DATA     BIT       IP_PSPI0
      000000E8H.1 SFRSYM    DATA     BIT       ADC0CN0_ADGN0
      000000FFH   SFRSYM    DATA     BYTE      SMB1ADM
      0000009CH   SFRSYM    DATA     BYTE      PCA0CLR
      000000C0H.6 SFRSYM    DATA     BIT       TMR5CN0_TF5L
      000000E8H.2 SFRSYM    DATA     BIT       ADC0CN0_ADGN1
      000000C8H   SFRSYM    DATA     BYTE      TMR2CN0
      000000E3H   SFRSYM    DATA     BYTE      PWMCKDIV
      00000091H   SFRSYM    DATA     BYTE      TMR3CN0
      000000FDH   SFRSYM    DATA     BYTE      TMR2CN1
      00000098H   SFRSYM    DATA     BYTE      TMR4CN0
      000000FEH   SFRSYM    DATA     BYTE      TMR3CN1
      000000C0H   SFRSYM    DATA     BYTE      TMR5CN0
      000000FFH   SFRSYM    DATA     BYTE      TMR4CN1
      000000D7H   SFRSYM    DATA     BYTE      SMB0ADR
      00000088H.4 SFRSYM    DATA     BIT       TCON_TR0
      000000F1H   SFRSYM    DATA     BYTE      TMR5CN1
      000000BDH   SFRSYM    DATA     BYTE      SMB1ADR
      000000C8H.4 SFRSYM    DATA     BIT       TMR2CN0_TF2CEN
      00000088H.6 SFRSYM    DATA     BIT       TCON_TR1
      000000C2H   SFRSYM    DATA     BYTE      SMB0DAT
      000000CFH   SFRSYM    DATA     BYTE      TMR2H
      000000A1H   SFRSYM    DATA     BYTE      SPI0CFG
      000000BBH   SFRSYM    DATA     BYTE      SMB1DAT
      00000095H   SFRSYM    DATA     BYTE      TMR3H
      000000D3H   SFRSYM    DATA     BYTE      CRC0CNT
      000000A5H   SFRSYM    DATA     BYTE      TMR4H
      00000098H.4 SFRSYM    DATA     BIT       TMR4CN0_TF4CEN
      000000D5H   SFRSYM    DATA     BYTE      TMR5H
      000000EFH   SFRSYM    DATA     BYTE      SMB0FCT
      00000096H   SFRSYM    DATA     BYTE      PCA0POL
      000000CEH   SFRSYM    DATA     BYTE      TMR2L
      000000F5H   SFRSYM    DATA     BYTE      SMB1FCT
      000000C0H.4 SFRSYM    DATA     BIT       TMR5CN0_TF5CEN
      000000F8H.7 SFRSYM    DATA     BIT       SPI0CN0_SPIF
      00000094H   SFRSYM    DATA     BYTE      TMR3L
      000000A8H.7 SFRSYM    DATA     BIT       IE_EA
      000000C3H   SFRSYM    DATA     WORD      PWM
      000000A4H   SFRSYM    DATA     BYTE      TMR4L
      000000D4H   SFRSYM    DATA     BYTE      TMR5L
      000000AFH   SFRSYM    DATA     BYTE      CLKGRP0
      000000C8H.5 SFRSYM    DATA     BIT       TMR2CN0_TF2LEN
      000000F8H.6 SFRSYM    DATA     BIT       SPI0CN0_WCOL
      000000C2H   SFRSYM    DATA     BYTE      PWMCFG0
      000000F8H.2 SFRSYM    DATA     BIT       SPI0CN0_NSSMD0
      000000D0H.7 SFRSYM    DATA     BIT       PSW_CY
LX51 LINKER/LOCATER V4.66.97.0                                                        02/23/2023  16:00:17  PAGE 39


      0000009DH   SFRSYM    DATA     BYTE      UART1FCN0
      000000DFH   SFRSYM    DATA     BYTE      SPI0PCF
      000000A3H   SFRSYM    DATA     BYTE      SPI0DAT
      000000C9H   SFRSYM    DATA     BYTE      PWMCFG1
      000000F8H.3 SFRSYM    DATA     BIT       SPI0CN0_NSSMD1
      000000BDH   SFRSYM    DATA     WORD      ADC0
      000000D8H   SFRSYM    DATA     BYTE      UART1FCN1
      000000D1H   SFRSYM    DATA     BYTE      PWMCFG2
      000000E8H.0 SFRSYM    DATA     BIT       CLIF0_C0FIF
      000000DFH   SFRSYM    DATA     BYTE      PWMCFG3
      00000098H.5 SFRSYM    DATA     BIT       TMR4CN0_TF4LEN
      000000E8H.2 SFRSYM    DATA     BIT       CLIF0_C1FIF
      000000D0H   SFRSYM    DATA     BYTE      PSW
      000000F7H   SFRSYM    DATA     BYTE      PCA0PWM
      000000E8H.4 SFRSYM    DATA     BIT       CLIF0_C2FIF
      000000F7H   SFRSYM    DATA     BYTE      SPI0FCT
      000000B6H   SFRSYM    DATA     BYTE      REVID
      000000C0H.5 SFRSYM    DATA     BIT       TMR5CN0_TF5LEN
      000000E8H.6 SFRSYM    DATA     BIT       CLIF0_C3FIF
      000000CCH   SFRSYM    DATA     BYTE      HFO0TRIM0
      000000B7H   SFRSYM    DATA     BYTE      FLKEY

      010007E5H   BLOCK     CODE     ---       LVL=0
      00000021H   SYMBOL    DATA     ---       dummy
      010007E5H   LINE      CODE     ---       #28
      ---         BLOCKEND  ---      ---       LVL=0

      010002E8H   BLOCK     CODE     ---       LVL=0
      010002E8H   BLOCK     CODE     NEAR LAB  LVL=1
      00000021H   SYMBOL    DATA     ---       received_info_bytes
      0000002BH   SYMBOL    DATA     BYTE      received_info_bytes_size
      0000002CH   SYMBOL    DATA     ---       send_info_bytes
      00000036H   SYMBOL    DATA     BYTE      send_info_bytes_size
      00000007H   SYMBOL    DATA     BYTE      command
      ---         BLOCKEND  ---      ---       LVL=1
      010002E8H   LINE      CODE     ---       #38
      010002E8H   LINE      CODE     ---       #54
      010002FAH   LINE      CODE     ---       #57
      010002FEH   LINE      CODE     ---       #58
      01000301H   LINE      CODE     ---       #59
      01000301H   LINE      CODE     ---       #60
      01000303H   LINE      CODE     ---       #61
      01000303H   LINE      CODE     ---       #62
      01000305H   LINE      CODE     ---       #65
      0100030FH   LINE      CODE     ---       #66
      01000312H   LINE      CODE     ---       #67
      01000312H   LINE      CODE     ---       #68
      01000314H   LINE      CODE     ---       #71
      01000324H   LINE      CODE     ---       #72
      01000327H   LINE      CODE     ---       #73
      01000327H   LINE      CODE     ---       #74
      01000329H   LINE      CODE     ---       #78
      01000329H   LINE      CODE     ---       #79
      01000349H   LINE      CODE     ---       #80
      0100034CH   LINE      CODE     ---       #81
      0100034CH   LINE      CODE     ---       #82
      0100034CH   LINE      CODE     ---       #85
      01000357H   LINE      CODE     ---       #88
      0100035AH   LINE      CODE     ---       #89
      ---         BLOCKEND  ---      ---       LVL=0

      ---         MODULE    ---      ---       HDLC_L
LX51 LINKER/LOCATER V4.66.97.0                                                        02/23/2023  16:00:17  PAGE 40


      00000019H   PUBLIC    DATA     BYTE      out_packet_size
      00000018H   PUBLIC    DATA     BYTE      in_packet_size
      00000017H   PUBLIC    DATA     BYTE      end_flag_sent
      00000016H   PUBLIC    DATA     BYTE      start_flag_sent
      00000015H   PUBLIC    DATA     BYTE      sending_byte_to_be_stuffed
      00000014H   PUBLIC    DATA     BYTE      receive_overflow_flag
      02000008H   PUBLIC    XDATA    ---       out_packet
      02000000H   PUBLIC    XDATA    ---       in_packet
      00000013H   PUBLIC    DATA     BYTE      out_packet_index
      00000012H   PUBLIC    DATA     BYTE      in_packet_index
      0100002EH   PUBLIC    CODE     ---       UART0_ISR
      01000614H   PUBLIC    CODE     ---       destuff_in_packet
      00000037H   PUBLIC    DATA     BYTE      ?_hdlc_l_load_received_info_bytes?BYTE
      01000596H   PUBLIC    CODE     ---       _hdlc_l_load_received_info_bytes
      010007C5H   PUBLIC    CODE     ---       _hdlc_l_send_control_packet
      0100054BH   PUBLIC    CODE     ---       _hdlc_l_send_info_packet
      01000676H   PUBLIC    CODE     ---       hdlc_l_pack_and_send_packet
      010007BAH   PUBLIC    CODE     ---       hdlc_l_transmit
      010004B2H   PUBLIC    CODE     ---       _hdlc_l_check_packet_crc_mismatch
      01000460H   PUBLIC    CODE     ---       _hdlc_l_crc_computation
      000000A2H   SFRSYM    DATA     BYTE      SPI0CKR
      00000080H   SFRSYM    DATA     BYTE      P0
      000000C8H.6 SFRSYM    DATA     BIT       SCON1_PERR
      000000D0H.2 SFRSYM    DATA     BIT       PSW_OV
      00000090H   SFRSYM    DATA     BYTE      P1
      000000F8H.1 SFRSYM    DATA     BIT       SPI0CN0_TXNF
      00000097H   SFRSYM    DATA     BYTE      WDTCN
      0000009AH   SFRSYM    DATA     BYTE      PWMCPH0
      000000A0H   SFRSYM    DATA     BYTE      P2
      000000B6H   SFRSYM    DATA     BYTE      PWMCPH1
      000000B0H   SFRSYM    DATA     BYTE      P3
      0000009FH   SFRSYM    DATA     BYTE      PWMIE
      000000BEH   SFRSYM    DATA     BYTE      PWMCPH2
      000000C0H.7 SFRSYM    DATA     BIT       SMB0CN0_MASTER
      000000F9H   SFRSYM    DATA     WORD      PCA0
      0000009DH   SFRSYM    DATA     BYTE      PWMIF
      000000E6H   SFRSYM    DATA     BYTE      EIE1
      00000088H.7 SFRSYM    DATA     BIT       SMB1CN0_MASTER
      000000C0H.1 SFRSYM    DATA     BIT       SMB0CN0_ACK
      000000E8H.1 SFRSYM    DATA     BIT       CLIF0_C0RIF
      00000099H   SFRSYM    DATA     BYTE      PWMCPL0
      000000F3H   SFRSYM    DATA     BYTE      EIE2
      00000088H.1 SFRSYM    DATA     BIT       SMB1CN0_ACK
      000000E8H.3 SFRSYM    DATA     BIT       CLIF0_C1RIF
      000000B5H   SFRSYM    DATA     BYTE      PWMCPL1
      000000E8H.5 SFRSYM    DATA     BIT       CLIF0_C2RIF
      000000BDH   SFRSYM    DATA     BYTE      PWMCPL2
      0000008FH   SFRSYM    DATA     BYTE      PSCTL
      000000E8H.7 SFRSYM    DATA     BIT       CLIF0_C3RIF
      000000E4H   SFRSYM    DATA     BYTE      IT01CF
      000000C0H.6 SFRSYM    DATA     BIT       SMB0CN0_TXMODE
      000000E2H   SFRSYM    DATA     BYTE      PWMDTINLIM
      000000ADH   SFRSYM    DATA     BYTE      DERIVID
      00000088H.6 SFRSYM    DATA     BIT       SMB1CN0_TXMODE
      000000A7H   SFRSYM    DATA     BYTE      SFRPAGE
      000000E1H   SFRSYM    DATA     BYTE      PWMDTIPLIM
      000000A4H   SFRSYM    DATA     BYTE      P0MDOUT
      000000A5H   SFRSYM    DATA     BYTE      P1MDOUT
      000000E8H.5 SFRSYM    DATA     BIT       ADC0CN0_ADINT
      000000CBH   SFRSYM    DATA     BYTE      TMR2RLH
      000000A6H   SFRSYM    DATA     BYTE      P2MDOUT
      000000A8H   SFRSYM    DATA     BYTE      IE
LX51 LINKER/LOCATER V4.66.97.0                                                        02/23/2023  16:00:17  PAGE 41


      00000093H   SFRSYM    DATA     BYTE      TMR3RLH
      0000009CH   SFRSYM    DATA     BYTE      P3MDOUT
      000000A3H   SFRSYM    DATA     BYTE      TMR4RLH
      000000BBH   SFRSYM    DATA     BYTE      EIP1
      000000D3H   SFRSYM    DATA     BYTE      TMR5RLH
      000000EDH   SFRSYM    DATA     BYTE      EIP2
      00000098H.2 SFRSYM    DATA     BIT       SCON0_RB8
      000000CAH   SFRSYM    DATA     BYTE      TMR2RLL
      000000FCH   SFRSYM    DATA     BYTE      PCA0CPH0
      00000092H   SFRSYM    DATA     BYTE      TMR3RLL
      000000EAH   SFRSYM    DATA     BYTE      PCA0CPH1
      00000098H.3 SFRSYM    DATA     BIT       SCON0_TB8
      000000F0H.0 SFRSYM    DATA     BIT       B_B0
      00000082H   SFRSYM    DATA     WORD      DP
      000000A2H   SFRSYM    DATA     BYTE      TMR4RLL
      000000ECH   SFRSYM    DATA     BYTE      PCA0CPH2
      000000F0H.1 SFRSYM    DATA     BIT       B_B1
      000000C3H   SFRSYM    DATA     WORD      ADC0GT
      000000D2H   SFRSYM    DATA     BYTE      TMR5RLL
      000000D8H.3 SFRSYM    DATA     BIT       UART1FCN1_RFRQ
      000000F0H.2 SFRSYM    DATA     BIT       B_B2
      000000BCH   SFRSYM    DATA     BYTE      SFRPGCN
      000000FBH   SFRSYM    DATA     BYTE      PCA0CPL0
      000000F0H.3 SFRSYM    DATA     BIT       B_B3
      000000D9H   SFRSYM    DATA     BYTE      PCA0MD
      000000DAH   SFRSYM    DATA     BYTE      PCA0CPM0
      000000E9H   SFRSYM    DATA     BYTE      PCA0CPL1
      000000D8H.7 SFRSYM    DATA     BIT       UART1FCN1_TFRQ
      000000F0H.4 SFRSYM    DATA     BIT       B_B4
      000000DBH   SFRSYM    DATA     BYTE      PCA0CPM1
      000000EBH   SFRSYM    DATA     BYTE      PCA0CPL2
      000000A1H   SFRSYM    DATA     BYTE      ADC0ASCF
      000000B6H   SFRSYM    DATA     BYTE      ADC0ASAH
      000000F0H.5 SFRSYM    DATA     BIT       B_B5
      000000E8H.6 SFRSYM    DATA     BIT       ADC0CN0_IPOEN
      000000E8H.0 SFRSYM    DATA     BIT       ADC0CN0_TEMPE
      000000DCH   SFRSYM    DATA     BYTE      PCA0CPM2
      000000B8H   SFRSYM    DATA     BYTE      IP
      000000F0H.6 SFRSYM    DATA     BIT       B_B6
      000000C5H   SFRSYM    DATA     WORD      ADC0LT
      000000D8H.6 SFRSYM    DATA     BIT       UART1FCN1_TXNF
      00000098H.5 SFRSYM    DATA     BIT       SCON0_MCE
      000000F0H.7 SFRSYM    DATA     BIT       B_B7
      000000C3H   SFRSYM    DATA     BYTE      SMB0FCN0
      000000ACH   SFRSYM    DATA     BYTE      PWMCPUDH0
      000000B5H   SFRSYM    DATA     BYTE      ADC0ASAL
      000000E1H   SFRSYM    DATA     BYTE      XBR0
      000000ADH   SFRSYM    DATA     BYTE      SMB1FCN0
      000000C4H   SFRSYM    DATA     BYTE      SMB0FCN1
      000000C1H   SFRSYM    DATA     BYTE      SMB0CF
      000000B3H   SFRSYM    DATA     BYTE      PWMCPUDH1
      000000E2H   SFRSYM    DATA     BYTE      XBR1
      000000ABH   SFRSYM    DATA     BYTE      SMB1FCN1
      000000BAH   SFRSYM    DATA     BYTE      SMB1CF
      000000BAH   SFRSYM    DATA     BYTE      PWMCPUDH2
      000000C1H   SFRSYM    DATA     BYTE      PFE0CN
      000000E7H   SFRSYM    DATA     BYTE      EMI0CN
      000000C0H.5 SFRSYM    DATA     BIT       SMB0CN0_STA
      000000E3H   SFRSYM    DATA     BYTE      XBR2
      000000B1H   SFRSYM    DATA     BYTE      CLU0CF
      000000BBH   SFRSYM    DATA     BYTE      ADC0MX
      00000088H.5 SFRSYM    DATA     BIT       SMB1CN0_STA
LX51 LINKER/LOCATER V4.66.97.0                                                        02/23/2023  16:00:17  PAGE 42


      000000E0H.0 SFRSYM    DATA     BIT       ACC_ACC0
      000000D1H   SFRSYM    DATA     BYTE      REF0CN
      000000ABH   SFRSYM    DATA     BYTE      PWMCPUDL0
      000000EFH   SFRSYM    DATA     BYTE      HFO0CN
      000000B3H   SFRSYM    DATA     BYTE      CLU1CF
      0000008EH   SFRSYM    DATA     BYTE      CKCON0
      000000E0H.1 SFRSYM    DATA     BIT       ACC_ACC1
      000000C9H   SFRSYM    DATA     BYTE      REG0CN
      000000C6H   SFRSYM    DATA     BYTE      PWMLIMH
      000000B2H   SFRSYM    DATA     BYTE      PWMCPUDL1
      000000CAH   SFRSYM    DATA     BYTE      CRC0IN
      000000B6H   SFRSYM    DATA     BYTE      CLU2CF
      000000A6H   SFRSYM    DATA     BYTE      CKCON1
      000000C8H.2 SFRSYM    DATA     BIT       TMR2CN0_TR2
      000000E0H.2 SFRSYM    DATA     BIT       ACC_ACC2
      000000B9H   SFRSYM    DATA     BYTE      PWMCPUDL2
      000000BFH   SFRSYM    DATA     BYTE      CLU3CF
      000000E0H.3 SFRSYM    DATA     BIT       ACC_ACC3
      00000081H   SFRSYM    DATA     BYTE      SP
      0000009DH   SFRSYM    DATA     BYTE      CMP0MD
      000000E0H.4 SFRSYM    DATA     BIT       ACC_ACC4
      000000B1H   SFRSYM    DATA     BYTE      LFO0CN
      000000ABH   SFRSYM    DATA     BYTE      CMP1MD
      000000D8H.0 SFRSYM    DATA     BIT       PCA0CN0_CCF0
      000000E0H.5 SFRSYM    DATA     BIT       ACC_ACC5
      000000C5H   SFRSYM    DATA     BYTE      PWMLIML
      00000098H.2 SFRSYM    DATA     BIT       TMR4CN0_TR4
      000000D8H.1 SFRSYM    DATA     BIT       PCA0CN0_CCF1
      000000E0H.6 SFRSYM    DATA     BIT       ACC_ACC6
      000000CEH   SFRSYM    DATA     WORD      TMR2
      0000009AH   SFRSYM    DATA     BYTE      SPI0FCN0
      000000C7H   SFRSYM    DATA     BYTE      ADC0ASCT
      000000D8H.2 SFRSYM    DATA     BIT       PCA0CN0_CCF2
      000000E0H.7 SFRSYM    DATA     BIT       ACC_ACC7
      00000094H   SFRSYM    DATA     WORD      TMR3
      0000009BH   SFRSYM    DATA     BYTE      SPI0FCN1
      000000C0H.2 SFRSYM    DATA     BIT       TMR5CN0_TR5
      000000A4H   SFRSYM    DATA     WORD      TMR4
      00000094H   SFRSYM    DATA     BYTE      SBCON1
      000000D4H   SFRSYM    DATA     WORD      TMR5
      000000C0H.3 SFRSYM    DATA     BIT       SMB0CN0_ACKRQ
      000000F1H   SFRSYM    DATA     BYTE      P0MDIN
      000000AFH   SFRSYM    DATA     BYTE      CLU0FN
      00000088H.3 SFRSYM    DATA     BIT       SMB1CN0_ACKRQ
      00000098H.4 SFRSYM    DATA     BIT       SCON0_REN
      000000ACH   SFRSYM    DATA     BYTE      SMB0TC
      000000F2H   SFRSYM    DATA     BYTE      P1MDIN
      000000B2H   SFRSYM    DATA     BYTE      CLU1FN
      000000C8H.4 SFRSYM    DATA     BIT       SCON1_REN
      000000B9H   SFRSYM    DATA     BYTE      SMB1TC
      000000F3H   SFRSYM    DATA     BYTE      P2MDIN
      000000B5H   SFRSYM    DATA     BYTE      CLU2FN
      000000C0H.4 SFRSYM    DATA     BIT       SMB0CN0_STO
      000000F4H   SFRSYM    DATA     BYTE      P3MDIN
      000000BEH   SFRSYM    DATA     BYTE      CLU3FN
      00000088H.4 SFRSYM    DATA     BIT       SMB1CN0_STO
      00000096H   SFRSYM    DATA     BYTE      SBRLH1
      000000FEH   SFRSYM    DATA     BYTE      P0MASK
      000000D8H.5 SFRSYM    DATA     BIT       UART1FCN1_TXHOLD
      000000EEH   SFRSYM    DATA     BYTE      P1MASK
      000000FCH   SFRSYM    DATA     BYTE      P2MASK
      000000D0H.3 SFRSYM    DATA     BIT       PSW_RS0
LX51 LINKER/LOCATER V4.66.97.0                                                        02/23/2023  16:00:17  PAGE 43


      000000D8H.7 SFRSYM    DATA     BIT       PCA0CN0_CF
      0000009EH   SFRSYM    DATA     BYTE      PCA0CENT
      000000D2H   SFRSYM    DATA     BYTE      CRC0ST
      000000F8H.4 SFRSYM    DATA     BIT       SPI0CN0_RXOVRN
      000000D0H.4 SFRSYM    DATA     BIT       PSW_RS1
      00000095H   SFRSYM    DATA     BYTE      SBRLL1
      000000C8H.2 SFRSYM    DATA     BIT       SCON1_RBX
      00000091H   SFRSYM    DATA     BYTE      DAC0CF0
      000000C8H.0 SFRSYM    DATA     BIT       TMR2CN0_T2XCLK0
      00000092H   SFRSYM    DATA     BYTE      DAC0CF1
      000000B9H   SFRSYM    DATA     BYTE      ADC0CF1
      000000C8H.1 SFRSYM    DATA     BIT       TMR2CN0_T2XCLK1
      000000C8H.3 SFRSYM    DATA     BIT       SCON1_TBX
      000000E8H.7 SFRSYM    DATA     BIT       ADC0CN0_ADEN
      00000089H   SFRSYM    DATA     BYTE      TMOD
      00000088H   SFRSYM    DATA     BYTE      TCON
      000000DFH   SFRSYM    DATA     BYTE      ADC0CF2
      000000CFH   SFRSYM    DATA     BYTE      CRC0FLIP
      000000D0H.0 SFRSYM    DATA     BIT       PSW_PARITY
      000000A8H.4 SFRSYM    DATA     BIT       IE_ES0
      0000009FH   SFRSYM    DATA     BYTE      CMP0MX
      00000098H.0 SFRSYM    DATA     BIT       TMR4CN0_T4XCLK0
      000000A8H.1 SFRSYM    DATA     BIT       IE_ET0
      000000AAH   SFRSYM    DATA     BYTE      CMP1MX
      00000098H.1 SFRSYM    DATA     BIT       TMR4CN0_T4XCLK1
      000000A8H.3 SFRSYM    DATA     BIT       IE_ET1
      00000099H   SFRSYM    DATA     WORD      PWMCP0
      000000D4H   SFRSYM    DATA     BYTE      P0SKIP
      000000D1H   SFRSYM    DATA     BYTE      CLOUT0
      000000D8H.0 SFRSYM    DATA     BIT       UART1FCN1_RIE
      000000C0H.0 SFRSYM    DATA     BIT       TMR5CN0_T5XCLK0
      000000A8H.5 SFRSYM    DATA     BIT       IE_ET2
      000000B5H   SFRSYM    DATA     WORD      PWMCP1
      000000D5H   SFRSYM    DATA     BYTE      P1SKIP
      000000C0H.1 SFRSYM    DATA     BIT       TMR5CN0_T5XCLK1
      000000BDH   SFRSYM    DATA     WORD      PWMCP2
      000000CCH   SFRSYM    DATA     BYTE      P2SKIP
      00000084H   SFRSYM    DATA     BYTE      CLU0MX
      000000E8H   SFRSYM    DATA     BYTE      ADC0CN0
      000000D8H.4 SFRSYM    DATA     BIT       UART1FCN1_TIE
      000000A8H.0 SFRSYM    DATA     BIT       IE_EX0
      00000085H   SFRSYM    DATA     BYTE      CLU1MX
      000000B2H   SFRSYM    DATA     BYTE      ADC0CN1
      000000D8H.6 SFRSYM    DATA     BIT       PCA0CN0_CR
      000000A8H.2 SFRSYM    DATA     BIT       IE_EX1
      000000C4H   SFRSYM    DATA     BYTE      PWMH
      00000091H   SFRSYM    DATA     BYTE      CLU2MX
      000000B3H   SFRSYM    DATA     BYTE      ADC0CN2
      000000C8H.7 SFRSYM    DATA     BIT       SCON1_OVR
      000000AAH   SFRSYM    DATA     BYTE      PSTAT0
      000000AEH   SFRSYM    DATA     BYTE      CLU3MX
      00000098H.7 SFRSYM    DATA     BIT       SCON0_SMODE
      000000B5H   SFRSYM    DATA     BYTE      DEVICEID
      000000A9H   SFRSYM    DATA     BYTE      CLKSEL
      000000F8H.0 SFRSYM    DATA     BIT       SPI0CN0_SPIEN
      000000C3H   SFRSYM    DATA     BYTE      PWML
      00000085H   SFRSYM    DATA     BYTE      DAC0H
      000000F0H   SFRSYM    DATA     BYTE      B
      000000BEH   SFRSYM    DATA     BYTE      ADC0H
      000000CAH   SFRSYM    DATA     WORD      TMR2RL
      00000084H   SFRSYM    DATA     BYTE      DAC0L
      000000BDH   SFRSYM    DATA     BYTE      ADC0L
LX51 LINKER/LOCATER V4.66.97.0                                                        02/23/2023  16:00:17  PAGE 44


      00000092H   SFRSYM    DATA     WORD      TMR3RL
      000000A2H   SFRSYM    DATA     WORD      TMR4RL
      000000D8H   SFRSYM    DATA     BYTE      PCA0CN0
      000000E0H   SFRSYM    DATA     BYTE      ACC
      000000D2H   SFRSYM    DATA     WORD      TMR5RL
      000000D9H   SFRSYM    DATA     BYTE      UART0PCF
      000000FBH   SFRSYM    DATA     WORD      PCA0CP0
      000000DAH   SFRSYM    DATA     BYTE      UART1PCF
      000000E9H   SFRSYM    DATA     WORD      PCA0CP1
      000000EBH   SFRSYM    DATA     WORD      PCA0CP2
      000000CEH   SFRSYM    DATA     BYTE      CRC0CN0
      0000008CH   SFRSYM    DATA     BYTE      TH0
      00000086H   SFRSYM    DATA     BYTE      CRC0CN1
      000000B8H.4 SFRSYM    DATA     BIT       IP_PS0
      000000FAH   SFRSYM    DATA     BYTE      UART1FCT
      0000008DH   SFRSYM    DATA     BYTE      TH1
      000000FAH   SFRSYM    DATA     BYTE      PCA0H
      000000B8H.1 SFRSYM    DATA     BIT       IP_PT0
      000000C7H   SFRSYM    DATA     BYTE      CLIE0
      000000B8H.3 SFRSYM    DATA     BIT       IP_PT1
      000000B5H   SFRSYM    DATA     WORD      ADC0ASA
      000000E8H   SFRSYM    DATA     BYTE      CLIF0
      000000C0H.2 SFRSYM    DATA     BIT       SMB0CN0_ARBLOST
      000000B8H.5 SFRSYM    DATA     BIT       IP_PT2
      0000008AH   SFRSYM    DATA     BYTE      TL0
      00000088H.2 SFRSYM    DATA     BIT       SMB1CN0_ARBLOST
      000000D0H.5 SFRSYM    DATA     BIT       PSW_F0
      000000A8H.6 SFRSYM    DATA     BIT       IE_ESPI0
      0000008BH   SFRSYM    DATA     BYTE      TL1
      000000F9H   SFRSYM    DATA     BYTE      PCA0L
      000000C0H.0 SFRSYM    DATA     BIT       SMB0CN0_SI
      000000D0H.1 SFRSYM    DATA     BIT       PSW_F1
      00000080H.0 SFRSYM    DATA     BIT       P0_B0
      000000B8H.0 SFRSYM    DATA     BIT       IP_PX0
      00000088H.0 SFRSYM    DATA     BIT       SMB1CN0_SI
      00000090H.0 SFRSYM    DATA     BIT       P1_B0
      00000080H.1 SFRSYM    DATA     BIT       P0_B1
      000000B8H.2 SFRSYM    DATA     BIT       IP_PX1
      000000ABH   SFRSYM    DATA     WORD      PWMCPUD0
      0000009EH   SFRSYM    DATA     BYTE      UART1LIN
      0000009BH   SFRSYM    DATA     BYTE      CMP0CN0
      000000C6H   SFRSYM    DATA     BYTE      CLEN0
      00000088H.1 SFRSYM    DATA     BIT       TCON_IE0
      000000A0H.0 SFRSYM    DATA     BIT       P2_B0
      00000090H.1 SFRSYM    DATA     BIT       P1_B1
      00000080H.2 SFRSYM    DATA     BIT       P0_B2
      000000B2H   SFRSYM    DATA     WORD      PWMCPUD1
      000000BFH   SFRSYM    DATA     BYTE      CMP1CN0
      00000099H   SFRSYM    DATA     BYTE      CMP0CN1
      00000088H.3 SFRSYM    DATA     BIT       TCON_IE1
      000000B0H.0 SFRSYM    DATA     BIT       P3_B0
      000000A0H.1 SFRSYM    DATA     BIT       P2_B1
      00000090H.2 SFRSYM    DATA     BIT       P1_B2
      00000080H.3 SFRSYM    DATA     BIT       P0_B3
      000000B9H   SFRSYM    DATA     WORD      PWMCPUD2
      000000C0H   SFRSYM    DATA     BYTE      SMB0CN0
      000000A4H   SFRSYM    DATA     BYTE      CP0CN
      000000ACH   SFRSYM    DATA     BYTE      CMP1CN1
      000000B0H.1 SFRSYM    DATA     BIT       P3_B1
      000000A0H.2 SFRSYM    DATA     BIT       P2_B2
      00000090H.3 SFRSYM    DATA     BIT       P1_B3
      00000080H.4 SFRSYM    DATA     BIT       P0_B4
LX51 LINKER/LOCATER V4.66.97.0                                                        02/23/2023  16:00:17  PAGE 45


      00000088H   SFRSYM    DATA     BYTE      SMB1CN0
      000000B0H.2 SFRSYM    DATA     BIT       P3_B2
      000000A0H.3 SFRSYM    DATA     BIT       P2_B3
      00000090H.4 SFRSYM    DATA     BIT       P1_B4
      00000080H.5 SFRSYM    DATA     BIT       P0_B5
      000000D8H.1 SFRSYM    DATA     BIT       UART1FCN1_RXTO0
      000000B0H.3 SFRSYM    DATA     BIT       P3_B3
      000000A0H.4 SFRSYM    DATA     BIT       P2_B4
      00000090H.5 SFRSYM    DATA     BIT       P1_B5
      00000080H.6 SFRSYM    DATA     BIT       P0_B6
      000000C5H   SFRSYM    DATA     WORD      PWMLIM
      000000EEH   SFRSYM    DATA     BYTE      EIP1H
      000000D8H.2 SFRSYM    DATA     BIT       UART1FCN1_RXTO1
      000000B0H.4 SFRSYM    DATA     BIT       P3_B4
      000000A0H.5 SFRSYM    DATA     BIT       P2_B5
      00000090H.6 SFRSYM    DATA     BIT       P1_B6
      00000080H.7 SFRSYM    DATA     BIT       P0_B7
      000000C5H   SFRSYM    DATA     BYTE      SMB0RXLN
      000000F6H   SFRSYM    DATA     BYTE      EIP2H
      000000B0H.5 SFRSYM    DATA     BIT       P3_B5
      000000A0H.6 SFRSYM    DATA     BIT       P2_B6
      00000090H.7 SFRSYM    DATA     BIT       P1_B7
      000000BCH   SFRSYM    DATA     BYTE      SMB1RXLN
      000000B0H.6 SFRSYM    DATA     BIT       P3_B6
      000000A0H.7 SFRSYM    DATA     BIT       P2_B7
      0000008AH   SFRSYM    DATA     BYTE      DAC0ALT
      000000B0H.7 SFRSYM    DATA     BIT       P3_B7
      0000009BH   SFRSYM    DATA     BYTE      PWMSTATUS
      00000083H   SFRSYM    DATA     BYTE      DPH
      000000C4H   SFRSYM    DATA     BYTE      ADC0GTH
      000000C8H.7 SFRSYM    DATA     BIT       TMR2CN0_TF2H
      000000C8H.3 SFRSYM    DATA     BIT       TMR2CN0_T2SPLIT
      000000D0H.6 SFRSYM    DATA     BIT       PSW_AC
      000000F8H   SFRSYM    DATA     BYTE      SPI0CN0
      000000D6H   SFRSYM    DATA     BYTE      HFO0CAL
      00000088H.5 SFRSYM    DATA     BIT       TCON_TF0
      00000098H.0 SFRSYM    DATA     BIT       SCON0_RI
      00000082H   SFRSYM    DATA     BYTE      DPL
      00000088H.7 SFRSYM    DATA     BIT       TCON_TF1
      000000C8H.0 SFRSYM    DATA     BIT       SCON1_RI
      00000099H   SFRSYM    DATA     BYTE      SBUF0
      00000087H   SFRSYM    DATA     BYTE      PCON0
      000000F2H   SFRSYM    DATA     BYTE      IPH
      000000C3H   SFRSYM    DATA     BYTE      ADC0GTL
      00000098H.7 SFRSYM    DATA     BIT       TMR4CN0_TF4H
      00000098H.3 SFRSYM    DATA     BIT       TMR4CN0_T4SPLIT
      000000C8H.6 SFRSYM    DATA     BIT       TMR2CN0_TF2L
      00000098H.1 SFRSYM    DATA     BIT       SCON0_TI
      00000092H   SFRSYM    DATA     BYTE      SBUF1
      000000CDH   SFRSYM    DATA     BYTE      PCON1
      000000C6H   SFRSYM    DATA     BYTE      ADC0LTH
      00000088H.0 SFRSYM    DATA     BIT       TCON_IT0
      000000C8H.1 SFRSYM    DATA     BIT       SCON1_TI
      000000EFH   SFRSYM    DATA     BYTE      RSTSRC
      000000FDH   SFRSYM    DATA     BYTE      P0MAT
      000000CBH   SFRSYM    DATA     BYTE      CRC0DAT
      000000C0H.7 SFRSYM    DATA     BIT       TMR5CN0_TF5H
      000000C0H.3 SFRSYM    DATA     BIT       TMR5CN0_T5SPLIT
      00000088H.2 SFRSYM    DATA     BIT       TCON_IT1
      000000D7H   SFRSYM    DATA     BYTE      SFRSTACK
      00000098H   SFRSYM    DATA     BYTE      SCON0
      000000F6H   SFRSYM    DATA     BYTE      PRTDRV
LX51 LINKER/LOCATER V4.66.97.0                                                        02/23/2023  16:00:17  PAGE 46


      000000EDH   SFRSYM    DATA     BYTE      P1MAT
      000000E8H.3 SFRSYM    DATA     BIT       ADC0CN0_ADWINT
      00000093H   SFRSYM    DATA     BYTE      SMOD1
      000000C8H   SFRSYM    DATA     BYTE      SCON1
      000000FBH   SFRSYM    DATA     BYTE      P2MAT
      00000098H.6 SFRSYM    DATA     BIT       TMR4CN0_TF4L
      000000E8H.4 SFRSYM    DATA     BIT       ADC0CN0_ADBUSY
      000000D6H   SFRSYM    DATA     BYTE      SMB0ADM
      000000C5H   SFRSYM    DATA     BYTE      ADC0LTL
      000000F8H.5 SFRSYM    DATA     BIT       SPI0CN0_MODF
      000000B8H.6 SFRSYM    DATA     BIT       IP_PSPI0
      000000E8H.1 SFRSYM    DATA     BIT       ADC0CN0_ADGN0
      000000FFH   SFRSYM    DATA     BYTE      SMB1ADM
      0000009CH   SFRSYM    DATA     BYTE      PCA0CLR
      000000C0H.6 SFRSYM    DATA     BIT       TMR5CN0_TF5L
      000000E8H.2 SFRSYM    DATA     BIT       ADC0CN0_ADGN1
      000000C8H   SFRSYM    DATA     BYTE      TMR2CN0
      000000E3H   SFRSYM    DATA     BYTE      PWMCKDIV
      00000091H   SFRSYM    DATA     BYTE      TMR3CN0
      000000FDH   SFRSYM    DATA     BYTE      TMR2CN1
      00000098H   SFRSYM    DATA     BYTE      TMR4CN0
      000000FEH   SFRSYM    DATA     BYTE      TMR3CN1
      000000C0H   SFRSYM    DATA     BYTE      TMR5CN0
      000000FFH   SFRSYM    DATA     BYTE      TMR4CN1
      000000D7H   SFRSYM    DATA     BYTE      SMB0ADR
      00000088H.4 SFRSYM    DATA     BIT       TCON_TR0
      000000F1H   SFRSYM    DATA     BYTE      TMR5CN1
      000000BDH   SFRSYM    DATA     BYTE      SMB1ADR
      000000C8H.4 SFRSYM    DATA     BIT       TMR2CN0_TF2CEN
      00000088H.6 SFRSYM    DATA     BIT       TCON_TR1
      000000C2H   SFRSYM    DATA     BYTE      SMB0DAT
      000000CFH   SFRSYM    DATA     BYTE      TMR2H
      000000A1H   SFRSYM    DATA     BYTE      SPI0CFG
      000000BBH   SFRSYM    DATA     BYTE      SMB1DAT
      00000095H   SFRSYM    DATA     BYTE      TMR3H
      000000D3H   SFRSYM    DATA     BYTE      CRC0CNT
      000000A5H   SFRSYM    DATA     BYTE      TMR4H
      00000098H.4 SFRSYM    DATA     BIT       TMR4CN0_TF4CEN
      000000D5H   SFRSYM    DATA     BYTE      TMR5H
      000000EFH   SFRSYM    DATA     BYTE      SMB0FCT
      00000096H   SFRSYM    DATA     BYTE      PCA0POL
      000000CEH   SFRSYM    DATA     BYTE      TMR2L
      000000F5H   SFRSYM    DATA     BYTE      SMB1FCT
      000000C0H.4 SFRSYM    DATA     BIT       TMR5CN0_TF5CEN
      000000F8H.7 SFRSYM    DATA     BIT       SPI0CN0_SPIF
      00000094H   SFRSYM    DATA     BYTE      TMR3L
      000000A8H.7 SFRSYM    DATA     BIT       IE_EA
      000000C3H   SFRSYM    DATA     WORD      PWM
      000000A4H   SFRSYM    DATA     BYTE      TMR4L
      000000D4H   SFRSYM    DATA     BYTE      TMR5L
      000000AFH   SFRSYM    DATA     BYTE      CLKGRP0
      000000C8H.5 SFRSYM    DATA     BIT       TMR2CN0_TF2LEN
      000000F8H.6 SFRSYM    DATA     BIT       SPI0CN0_WCOL
      000000C2H   SFRSYM    DATA     BYTE      PWMCFG0
      000000F8H.2 SFRSYM    DATA     BIT       SPI0CN0_NSSMD0
      000000D0H.7 SFRSYM    DATA     BIT       PSW_CY
      0000009DH   SFRSYM    DATA     BYTE      UART1FCN0
      000000DFH   SFRSYM    DATA     BYTE      SPI0PCF
      000000A3H   SFRSYM    DATA     BYTE      SPI0DAT
      000000C9H   SFRSYM    DATA     BYTE      PWMCFG1
      000000F8H.3 SFRSYM    DATA     BIT       SPI0CN0_NSSMD1
      000000BDH   SFRSYM    DATA     WORD      ADC0
LX51 LINKER/LOCATER V4.66.97.0                                                        02/23/2023  16:00:17  PAGE 47


      000000D8H   SFRSYM    DATA     BYTE      UART1FCN1
      000000D1H   SFRSYM    DATA     BYTE      PWMCFG2
      000000E8H.0 SFRSYM    DATA     BIT       CLIF0_C0FIF
      000000DFH   SFRSYM    DATA     BYTE      PWMCFG3
      00000098H.5 SFRSYM    DATA     BIT       TMR4CN0_TF4LEN
      000000E8H.2 SFRSYM    DATA     BIT       CLIF0_C1FIF
      000000D0H   SFRSYM    DATA     BYTE      PSW
      000000F7H   SFRSYM    DATA     BYTE      PCA0PWM
      000000E8H.4 SFRSYM    DATA     BIT       CLIF0_C2FIF
      000000F7H   SFRSYM    DATA     BYTE      SPI0FCT
      000000B6H   SFRSYM    DATA     BYTE      REVID
      000000C0H.5 SFRSYM    DATA     BIT       TMR5CN0_TF5LEN
      000000E8H.6 SFRSYM    DATA     BIT       CLIF0_C3FIF
      000000CCH   SFRSYM    DATA     BYTE      HFO0TRIM0
      000000B7H   SFRSYM    DATA     BYTE      FLKEY

      01000728H   BLOCK     CODE     ---       LVL=0
      ---         BLOCKEND  ---      ---       LVL=0

      01000460H   BLOCK     CODE     ---       LVL=0
      0000004AH   SYMBOL    DATA     ---       array
      0000004DH   SYMBOL    DATA     BYTE      array_size
      01000468H   BLOCK     CODE     NEAR LAB  LVL=1
      0000004EH   SYMBOL    DATA     WORD      crc_value
      00000007H   SYMBOL    DATA     BYTE      CRC_input
      00000005H   SYMBOL    DATA     BYTE      array_byte
      00000004H   SYMBOL    DATA     BYTE      i
      ---         BLOCKEND  ---      ---       LVL=1
      01000460H   LINE      CODE     ---       #45
      01000468H   LINE      CODE     ---       #46
      0100046EH   LINE      CODE     ---       #53
      01000476H   LINE      CODE     ---       #54
      01000484H   LINE      CODE     ---       #56
      01000488H   LINE      CODE     ---       #59
      01000494H   LINE      CODE     ---       #63
      01000499H   LINE      CODE     ---       #65
      0100049CH   LINE      CODE     ---       #66
      010004A2H   LINE      CODE     ---       #67
      010004A4H   LINE      CODE     ---       #68
      010004A4H   LINE      CODE     ---       #70
      010004A7H   LINE      CODE     ---       #71
      010004A7H   LINE      CODE     ---       #72
      010004AAH   LINE      CODE     ---       #73
      010004ADH   LINE      CODE     ---       #75
      010004B1H   LINE      CODE     ---       #76
      ---         BLOCKEND  ---      ---       LVL=0

      010004B2H   BLOCK     CODE     ---       LVL=0
      00000044H   SYMBOL    DATA     ---       packet
      00000047H   SYMBOL    DATA     BYTE      packet_size
      010004BAH   BLOCK     CODE     NEAR LAB  LVL=1
      00000048H   SYMBOL    DATA     WORD      packet_crc_computed
      00000006H   SYMBOL    DATA     WORD      packet_crc
      ---         BLOCKEND  ---      ---       LVL=1
      010004B2H   LINE      CODE     ---       #80
      010004BAH   LINE      CODE     ---       #82
      010004C6H   LINE      CODE     ---       #84
      010004F1H   LINE      CODE     ---       #86
      010004FFH   LINE      CODE     ---       #87
      ---         BLOCKEND  ---      ---       LVL=0

      010007BAH   BLOCK     CODE     ---       LVL=0
LX51 LINKER/LOCATER V4.66.97.0                                                        02/23/2023  16:00:17  PAGE 48


      010007BAH   LINE      CODE     ---       #90
      010007BAH   LINE      CODE     ---       #92
      010007BDH   LINE      CODE     ---       #93
      010007BFH   LINE      CODE     ---       #94
      010007C1H   LINE      CODE     ---       #96
      010007C4H   LINE      CODE     ---       #97
      ---         BLOCKEND  ---      ---       LVL=0

      01000676H   BLOCK     CODE     ---       LVL=0
      01000676H   BLOCK     CODE     NEAR LAB  LVL=1
      00000004H   SYMBOL    DATA     WORD      packet_crc
      ---         BLOCKEND  ---      ---       LVL=1
      01000676H   LINE      CODE     ---       #101
      01000676H   LINE      CODE     ---       #104
      01000683H   LINE      CODE     ---       #105
      01000690H   LINE      CODE     ---       #106
      0100069DH   LINE      CODE     ---       #107
      010006A1H   LINE      CODE     ---       #109
      ---         BLOCKEND  ---      ---       LVL=0

      0100054BH   BLOCK     CODE     ---       LVL=0
      00000037H   SYMBOL    DATA     ---       send_info_bytes
      0000003AH   SYMBOL    DATA     BYTE      send_info_bytes_size
      01000553H   BLOCK     CODE     NEAR LAB  LVL=1
      00000007H   SYMBOL    DATA     BYTE      i
      ---         BLOCKEND  ---      ---       LVL=1
      0100054BH   LINE      CODE     ---       #113
      01000553H   LINE      CODE     ---       #117
      0100055EH   LINE      CODE     ---       #118
      01000563H   LINE      CODE     ---       #120
      01000563H   LINE      CODE     ---       #123
      01000568H   LINE      CODE     ---       #125
      0100056FH   LINE      CODE     ---       #126
      0100058DH   LINE      CODE     ---       #127
      01000592H   LINE      CODE     ---       #128
      01000595H   LINE      CODE     ---       #129
      ---         BLOCKEND  ---      ---       LVL=0

      010007C5H   BLOCK     CODE     ---       LVL=0
      00000007H   SYMBOL    DATA     BYTE      control_byte
      010007C5H   LINE      CODE     ---       #132
      010007C5H   LINE      CODE     ---       #134
      010007CAH   LINE      CODE     ---       #135
      010007CDH   LINE      CODE     ---       #136
      ---         BLOCKEND  ---      ---       LVL=0

      01000596H   BLOCK     CODE     ---       LVL=0
      00000037H   SYMBOL    DATA     ---       received_info_bytes
      0000003AH   SYMBOL    DATA     ---       received_info_bytes_size
      0100059CH   BLOCK     CODE     NEAR LAB  LVL=1
      00000006H   SYMBOL    DATA     INT       i
      ---         BLOCKEND  ---      ---       LVL=1
      01000596H   LINE      CODE     ---       #141
      0100059CH   LINE      CODE     ---       #143
      010005A9H   LINE      CODE     ---       #146
      010005C0H   LINE      CODE     ---       #147
      010005DFH   LINE      CODE     ---       #149
      ---         BLOCKEND  ---      ---       LVL=0

      01000614H   BLOCK     CODE     ---       LVL=0
      01000614H   BLOCK     CODE     NEAR LAB  LVL=1
      00000007H   SYMBOL    DATA     BYTE      i
LX51 LINKER/LOCATER V4.66.97.0                                                        02/23/2023  16:00:17  PAGE 49


      00000006H   SYMBOL    DATA     BYTE      j
      ---         BLOCKEND  ---      ---       LVL=1
      01000614H   LINE      CODE     ---       #151
      01000614H   LINE      CODE     ---       #153
      01000616H   LINE      CODE     ---       #157
      0100061DH   LINE      CODE     ---       #160
      01000626H   LINE      CODE     ---       #161
      01000638H   LINE      CODE     ---       #163
      01000640H   LINE      CODE     ---       #165
      01000641H   LINE      CODE     ---       #166
      01000644H   LINE      CODE     ---       #168
      01000646H   LINE      CODE     ---       #169
      ---         BLOCKEND  ---      ---       LVL=0

      0100002EH   BLOCK     CODE     ---       LVL=0
      01000049H   BLOCK     CODE     NEAR LAB  LVL=1
      00000041H   SYMBOL    DATA     BYTE      received_packet_byte
      00000042H   SYMBOL    DATA     BYTE      control_byte
      00000007H   SYMBOL    DATA     BYTE      sending_byte
      00000043H   SYMBOL    DATA     BYTE      SFRPAGE_save
      ---         BLOCKEND  ---      ---       LVL=1
      0100002EH   LINE      CODE     ---       #173
      01000049H   LINE      CODE     ---       #180
      0100004CH   LINE      CODE     ---       #181
      0100004FH   LINE      CODE     ---       #184
      01000054H   LINE      CODE     ---       #186
      01000057H   LINE      CODE     ---       #189
      0100005BH   LINE      CODE     ---       #190
      0100005EH   LINE      CODE     ---       #191
      01000061H   LINE      CODE     ---       #192
      01000064H   LINE      CODE     ---       #195
      0100006BH   LINE      CODE     ---       #197
      01000078H   LINE      CODE     ---       #203
      01000093H   LINE      CODE     ---       #206
      01000093H   LINE      CODE     ---       #207
      01000097H   LINE      CODE     ---       #209
      0100009AH   LINE      CODE     ---       #210
      0100009DH   LINE      CODE     ---       #211
      010000A0H   LINE      CODE     ---       #212
      010000A0H   LINE      CODE     ---       #214
      010000A3H   LINE      CODE     ---       #215
      010000A8H   LINE      CODE     ---       #217
      010000AAH   LINE      CODE     ---       #218
      010000AAH   LINE      CODE     ---       #219
      010000ADH   LINE      CODE     ---       #220
      010000ADH   LINE      CODE     ---       #222
      010000AFH   LINE      CODE     ---       #224
      010000B1H   LINE      CODE     ---       #225
      010000B1H   LINE      CODE     ---       #227
      010000B4H   LINE      CODE     ---       #229
      010000BBH   LINE      CODE     ---       #230
      010000BEH   LINE      CODE     ---       #231
      010000C1H   LINE      CODE     ---       #232
      010000C1H   LINE      CODE     ---       #233
      010000C4H   LINE      CODE     ---       #236
      010000C4H   LINE      CODE     ---       #238
      010000C7H   LINE      CODE     ---       #241
      010000CAH   LINE      CODE     ---       #245
      010000D0H   LINE      CODE     ---       #246
      010000D2H   LINE      CODE     ---       #247
      010000D5H   LINE      CODE     ---       #248
      010000D5H   LINE      CODE     ---       #251
LX51 LINKER/LOCATER V4.66.97.0                                                        02/23/2023  16:00:17  PAGE 50


      010000DEH   LINE      CODE     ---       #252
      010000E0H   LINE      CODE     ---       #253
      010000E2H   LINE      CODE     ---       #255
      010000E7H   LINE      CODE     ---       #258
      010000EDH   LINE      CODE     ---       #260
      010000F0H   LINE      CODE     ---       #262
      010000F3H   LINE      CODE     ---       #264
      010000F7H   LINE      CODE     ---       #265
      010000FCH   LINE      CODE     ---       #266
      010000FFH   LINE      CODE     ---       #267
      01000101H   LINE      CODE     ---       #269
      0100010CH   LINE      CODE     ---       #270
      0100010EH   LINE      CODE     ---       #271
      01000110H   LINE      CODE     ---       #272
      01000110H   LINE      CODE     ---       #274
      01000113H   LINE      CODE     ---       #275
      01000119H   LINE      CODE     ---       #277
      01000127H   LINE      CODE     ---       #278
      01000129H   LINE      CODE     ---       #279
      0100012BH   LINE      CODE     ---       #281
      01000134H   LINE      CODE     ---       #282
      01000139H   LINE      CODE     ---       #283
      0100013BH   LINE      CODE     ---       #285
      01000141H   LINE      CODE     ---       #287
      01000144H   LINE      CODE     ---       #288
      01000146H   LINE      CODE     ---       #292
      01000146H   LINE      CODE     ---       #293
      01000149H   LINE      CODE     ---       #294
      0100014CH   LINE      CODE     ---       #295
      0100014CH   LINE      CODE     ---       #296
      0100014CH   LINE      CODE     ---       #298
      0100014EH   LINE      CODE     ---       #299
      0100014EH   LINE      CODE     ---       #301
      01000158H   LINE      CODE     ---       #302
      0100015AH   LINE      CODE     ---       #303
      0100015AH   LINE      CODE     ---       #304
      0100015AH   LINE      CODE     ---       #305
      0100015AH   LINE      CODE     ---       #308
      0100015DH   LINE      CODE     ---       #309
      ---         BLOCKEND  ---      ---       LVL=0

      ---         MODULE    ---      ---       LAMP_MAIN
      010006F3H   PUBLIC    CODE     ---       main
      000000A2H   SFRSYM    DATA     BYTE      SPI0CKR
      00000080H   SFRSYM    DATA     BYTE      P0
      000000C8H.6 SFRSYM    DATA     BIT       SCON1_PERR
      000000D0H.2 SFRSYM    DATA     BIT       PSW_OV
      00000090H   SFRSYM    DATA     BYTE      P1
      000000F8H.1 SFRSYM    DATA     BIT       SPI0CN0_TXNF
      00000097H   SFRSYM    DATA     BYTE      WDTCN
      0000009AH   SFRSYM    DATA     BYTE      PWMCPH0
      000000A0H   SFRSYM    DATA     BYTE      P2
      000000B6H   SFRSYM    DATA     BYTE      PWMCPH1
      000000B0H   SFRSYM    DATA     BYTE      P3
      0000009FH   SFRSYM    DATA     BYTE      PWMIE
      000000BEH   SFRSYM    DATA     BYTE      PWMCPH2
      000000C0H.7 SFRSYM    DATA     BIT       SMB0CN0_MASTER
      000000F9H   SFRSYM    DATA     WORD      PCA0
      0000009DH   SFRSYM    DATA     BYTE      PWMIF
      000000E6H   SFRSYM    DATA     BYTE      EIE1
      00000088H.7 SFRSYM    DATA     BIT       SMB1CN0_MASTER
      000000C0H.1 SFRSYM    DATA     BIT       SMB0CN0_ACK
LX51 LINKER/LOCATER V4.66.97.0                                                        02/23/2023  16:00:17  PAGE 51


      000000E8H.1 SFRSYM    DATA     BIT       CLIF0_C0RIF
      00000099H   SFRSYM    DATA     BYTE      PWMCPL0
      000000F3H   SFRSYM    DATA     BYTE      EIE2
      00000088H.1 SFRSYM    DATA     BIT       SMB1CN0_ACK
      000000E8H.3 SFRSYM    DATA     BIT       CLIF0_C1RIF
      000000B5H   SFRSYM    DATA     BYTE      PWMCPL1
      000000E8H.5 SFRSYM    DATA     BIT       CLIF0_C2RIF
      000000BDH   SFRSYM    DATA     BYTE      PWMCPL2
      0000008FH   SFRSYM    DATA     BYTE      PSCTL
      000000E8H.7 SFRSYM    DATA     BIT       CLIF0_C3RIF
      000000E4H   SFRSYM    DATA     BYTE      IT01CF
      000000C0H.6 SFRSYM    DATA     BIT       SMB0CN0_TXMODE
      000000E2H   SFRSYM    DATA     BYTE      PWMDTINLIM
      000000ADH   SFRSYM    DATA     BYTE      DERIVID
      00000088H.6 SFRSYM    DATA     BIT       SMB1CN0_TXMODE
      000000A7H   SFRSYM    DATA     BYTE      SFRPAGE
      000000E1H   SFRSYM    DATA     BYTE      PWMDTIPLIM
      000000A4H   SFRSYM    DATA     BYTE      P0MDOUT
      000000A5H   SFRSYM    DATA     BYTE      P1MDOUT
      000000E8H.5 SFRSYM    DATA     BIT       ADC0CN0_ADINT
      000000CBH   SFRSYM    DATA     BYTE      TMR2RLH
      000000A6H   SFRSYM    DATA     BYTE      P2MDOUT
      000000A8H   SFRSYM    DATA     BYTE      IE
      00000093H   SFRSYM    DATA     BYTE      TMR3RLH
      0000009CH   SFRSYM    DATA     BYTE      P3MDOUT
      000000A3H   SFRSYM    DATA     BYTE      TMR4RLH
      000000BBH   SFRSYM    DATA     BYTE      EIP1
      000000D3H   SFRSYM    DATA     BYTE      TMR5RLH
      000000EDH   SFRSYM    DATA     BYTE      EIP2
      00000098H.2 SFRSYM    DATA     BIT       SCON0_RB8
      000000CAH   SFRSYM    DATA     BYTE      TMR2RLL
      000000FCH   SFRSYM    DATA     BYTE      PCA0CPH0
      00000092H   SFRSYM    DATA     BYTE      TMR3RLL
      000000EAH   SFRSYM    DATA     BYTE      PCA0CPH1
      00000098H.3 SFRSYM    DATA     BIT       SCON0_TB8
      000000F0H.0 SFRSYM    DATA     BIT       B_B0
      00000082H   SFRSYM    DATA     WORD      DP
      000000A2H   SFRSYM    DATA     BYTE      TMR4RLL
      000000ECH   SFRSYM    DATA     BYTE      PCA0CPH2
      000000F0H.1 SFRSYM    DATA     BIT       B_B1
      000000C3H   SFRSYM    DATA     WORD      ADC0GT
      000000D2H   SFRSYM    DATA     BYTE      TMR5RLL
      000000D8H.3 SFRSYM    DATA     BIT       UART1FCN1_RFRQ
      000000F0H.2 SFRSYM    DATA     BIT       B_B2
      000000BCH   SFRSYM    DATA     BYTE      SFRPGCN
      000000FBH   SFRSYM    DATA     BYTE      PCA0CPL0
      000000F0H.3 SFRSYM    DATA     BIT       B_B3
      000000D9H   SFRSYM    DATA     BYTE      PCA0MD
      000000DAH   SFRSYM    DATA     BYTE      PCA0CPM0
      000000E9H   SFRSYM    DATA     BYTE      PCA0CPL1
      000000D8H.7 SFRSYM    DATA     BIT       UART1FCN1_TFRQ
      000000F0H.4 SFRSYM    DATA     BIT       B_B4
      000000DBH   SFRSYM    DATA     BYTE      PCA0CPM1
      000000EBH   SFRSYM    DATA     BYTE      PCA0CPL2
      000000A1H   SFRSYM    DATA     BYTE      ADC0ASCF
      000000B6H   SFRSYM    DATA     BYTE      ADC0ASAH
      000000F0H.5 SFRSYM    DATA     BIT       B_B5
      000000E8H.6 SFRSYM    DATA     BIT       ADC0CN0_IPOEN
      000000E8H.0 SFRSYM    DATA     BIT       ADC0CN0_TEMPE
      000000DCH   SFRSYM    DATA     BYTE      PCA0CPM2
      000000B8H   SFRSYM    DATA     BYTE      IP
      000000F0H.6 SFRSYM    DATA     BIT       B_B6
LX51 LINKER/LOCATER V4.66.97.0                                                        02/23/2023  16:00:17  PAGE 52


      000000C5H   SFRSYM    DATA     WORD      ADC0LT
      000000D8H.6 SFRSYM    DATA     BIT       UART1FCN1_TXNF
      00000098H.5 SFRSYM    DATA     BIT       SCON0_MCE
      000000F0H.7 SFRSYM    DATA     BIT       B_B7
      000000C3H   SFRSYM    DATA     BYTE      SMB0FCN0
      000000ACH   SFRSYM    DATA     BYTE      PWMCPUDH0
      000000B5H   SFRSYM    DATA     BYTE      ADC0ASAL
      000000E1H   SFRSYM    DATA     BYTE      XBR0
      000000ADH   SFRSYM    DATA     BYTE      SMB1FCN0
      000000C4H   SFRSYM    DATA     BYTE      SMB0FCN1
      000000C1H   SFRSYM    DATA     BYTE      SMB0CF
      000000B3H   SFRSYM    DATA     BYTE      PWMCPUDH1
      000000E2H   SFRSYM    DATA     BYTE      XBR1
      000000ABH   SFRSYM    DATA     BYTE      SMB1FCN1
      000000BAH   SFRSYM    DATA     BYTE      SMB1CF
      000000BAH   SFRSYM    DATA     BYTE      PWMCPUDH2
      000000C1H   SFRSYM    DATA     BYTE      PFE0CN
      000000E7H   SFRSYM    DATA     BYTE      EMI0CN
      000000C0H.5 SFRSYM    DATA     BIT       SMB0CN0_STA
      000000E3H   SFRSYM    DATA     BYTE      XBR2
      000000B1H   SFRSYM    DATA     BYTE      CLU0CF
      000000BBH   SFRSYM    DATA     BYTE      ADC0MX
      00000088H.5 SFRSYM    DATA     BIT       SMB1CN0_STA
      000000E0H.0 SFRSYM    DATA     BIT       ACC_ACC0
      000000D1H   SFRSYM    DATA     BYTE      REF0CN
      000000ABH   SFRSYM    DATA     BYTE      PWMCPUDL0
      000000EFH   SFRSYM    DATA     BYTE      HFO0CN
      000000B3H   SFRSYM    DATA     BYTE      CLU1CF
      0000008EH   SFRSYM    DATA     BYTE      CKCON0
      000000E0H.1 SFRSYM    DATA     BIT       ACC_ACC1
      000000C9H   SFRSYM    DATA     BYTE      REG0CN
      000000C6H   SFRSYM    DATA     BYTE      PWMLIMH
      000000B2H   SFRSYM    DATA     BYTE      PWMCPUDL1
      000000CAH   SFRSYM    DATA     BYTE      CRC0IN
      000000B6H   SFRSYM    DATA     BYTE      CLU2CF
      000000A6H   SFRSYM    DATA     BYTE      CKCON1
      000000C8H.2 SFRSYM    DATA     BIT       TMR2CN0_TR2
      000000E0H.2 SFRSYM    DATA     BIT       ACC_ACC2
      000000B9H   SFRSYM    DATA     BYTE      PWMCPUDL2
      000000BFH   SFRSYM    DATA     BYTE      CLU3CF
      000000E0H.3 SFRSYM    DATA     BIT       ACC_ACC3
      00000081H   SFRSYM    DATA     BYTE      SP
      0000009DH   SFRSYM    DATA     BYTE      CMP0MD
      000000E0H.4 SFRSYM    DATA     BIT       ACC_ACC4
      000000B1H   SFRSYM    DATA     BYTE      LFO0CN
      000000ABH   SFRSYM    DATA     BYTE      CMP1MD
      000000D8H.0 SFRSYM    DATA     BIT       PCA0CN0_CCF0
      000000E0H.5 SFRSYM    DATA     BIT       ACC_ACC5
      000000C5H   SFRSYM    DATA     BYTE      PWMLIML
      00000098H.2 SFRSYM    DATA     BIT       TMR4CN0_TR4
      000000D8H.1 SFRSYM    DATA     BIT       PCA0CN0_CCF1
      000000E0H.6 SFRSYM    DATA     BIT       ACC_ACC6
      000000CEH   SFRSYM    DATA     WORD      TMR2
      0000009AH   SFRSYM    DATA     BYTE      SPI0FCN0
      000000C7H   SFRSYM    DATA     BYTE      ADC0ASCT
      000000D8H.2 SFRSYM    DATA     BIT       PCA0CN0_CCF2
      000000E0H.7 SFRSYM    DATA     BIT       ACC_ACC7
      00000094H   SFRSYM    DATA     WORD      TMR3
      0000009BH   SFRSYM    DATA     BYTE      SPI0FCN1
      000000C0H.2 SFRSYM    DATA     BIT       TMR5CN0_TR5
      000000A4H   SFRSYM    DATA     WORD      TMR4
      00000094H   SFRSYM    DATA     BYTE      SBCON1
LX51 LINKER/LOCATER V4.66.97.0                                                        02/23/2023  16:00:17  PAGE 53


      000000D4H   SFRSYM    DATA     WORD      TMR5
      000000C0H.3 SFRSYM    DATA     BIT       SMB0CN0_ACKRQ
      000000F1H   SFRSYM    DATA     BYTE      P0MDIN
      000000AFH   SFRSYM    DATA     BYTE      CLU0FN
      00000088H.3 SFRSYM    DATA     BIT       SMB1CN0_ACKRQ
      00000098H.4 SFRSYM    DATA     BIT       SCON0_REN
      000000ACH   SFRSYM    DATA     BYTE      SMB0TC
      000000F2H   SFRSYM    DATA     BYTE      P1MDIN
      000000B2H   SFRSYM    DATA     BYTE      CLU1FN
      000000C8H.4 SFRSYM    DATA     BIT       SCON1_REN
      000000B9H   SFRSYM    DATA     BYTE      SMB1TC
      000000F3H   SFRSYM    DATA     BYTE      P2MDIN
      000000B5H   SFRSYM    DATA     BYTE      CLU2FN
      000000C0H.4 SFRSYM    DATA     BIT       SMB0CN0_STO
      000000F4H   SFRSYM    DATA     BYTE      P3MDIN
      000000BEH   SFRSYM    DATA     BYTE      CLU3FN
      00000088H.4 SFRSYM    DATA     BIT       SMB1CN0_STO
      00000096H   SFRSYM    DATA     BYTE      SBRLH1
      000000FEH   SFRSYM    DATA     BYTE      P0MASK
      000000D8H.5 SFRSYM    DATA     BIT       UART1FCN1_TXHOLD
      000000EEH   SFRSYM    DATA     BYTE      P1MASK
      000000FCH   SFRSYM    DATA     BYTE      P2MASK
      000000D0H.3 SFRSYM    DATA     BIT       PSW_RS0
      000000D8H.7 SFRSYM    DATA     BIT       PCA0CN0_CF
      0000009EH   SFRSYM    DATA     BYTE      PCA0CENT
      000000D2H   SFRSYM    DATA     BYTE      CRC0ST
      000000F8H.4 SFRSYM    DATA     BIT       SPI0CN0_RXOVRN
      000000D0H.4 SFRSYM    DATA     BIT       PSW_RS1
      00000095H   SFRSYM    DATA     BYTE      SBRLL1
      000000C8H.2 SFRSYM    DATA     BIT       SCON1_RBX
      00000091H   SFRSYM    DATA     BYTE      DAC0CF0
      000000C8H.0 SFRSYM    DATA     BIT       TMR2CN0_T2XCLK0
      00000092H   SFRSYM    DATA     BYTE      DAC0CF1
      000000B9H   SFRSYM    DATA     BYTE      ADC0CF1
      000000C8H.1 SFRSYM    DATA     BIT       TMR2CN0_T2XCLK1
      000000C8H.3 SFRSYM    DATA     BIT       SCON1_TBX
      000000E8H.7 SFRSYM    DATA     BIT       ADC0CN0_ADEN
      00000089H   SFRSYM    DATA     BYTE      TMOD
      00000088H   SFRSYM    DATA     BYTE      TCON
      000000DFH   SFRSYM    DATA     BYTE      ADC0CF2
      000000CFH   SFRSYM    DATA     BYTE      CRC0FLIP
      000000D0H.0 SFRSYM    DATA     BIT       PSW_PARITY
      000000A8H.4 SFRSYM    DATA     BIT       IE_ES0
      0000009FH   SFRSYM    DATA     BYTE      CMP0MX
      00000098H.0 SFRSYM    DATA     BIT       TMR4CN0_T4XCLK0
      000000A8H.1 SFRSYM    DATA     BIT       IE_ET0
      000000AAH   SFRSYM    DATA     BYTE      CMP1MX
      00000098H.1 SFRSYM    DATA     BIT       TMR4CN0_T4XCLK1
      000000A8H.3 SFRSYM    DATA     BIT       IE_ET1
      00000099H   SFRSYM    DATA     WORD      PWMCP0
      000000D4H   SFRSYM    DATA     BYTE      P0SKIP
      000000D1H   SFRSYM    DATA     BYTE      CLOUT0
      000000D8H.0 SFRSYM    DATA     BIT       UART1FCN1_RIE
      000000C0H.0 SFRSYM    DATA     BIT       TMR5CN0_T5XCLK0
      000000A8H.5 SFRSYM    DATA     BIT       IE_ET2
      000000B5H   SFRSYM    DATA     WORD      PWMCP1
      000000D5H   SFRSYM    DATA     BYTE      P1SKIP
      000000C0H.1 SFRSYM    DATA     BIT       TMR5CN0_T5XCLK1
      000000BDH   SFRSYM    DATA     WORD      PWMCP2
      000000CCH   SFRSYM    DATA     BYTE      P2SKIP
      00000084H   SFRSYM    DATA     BYTE      CLU0MX
      000000E8H   SFRSYM    DATA     BYTE      ADC0CN0
LX51 LINKER/LOCATER V4.66.97.0                                                        02/23/2023  16:00:17  PAGE 54


      000000D8H.4 SFRSYM    DATA     BIT       UART1FCN1_TIE
      000000A8H.0 SFRSYM    DATA     BIT       IE_EX0
      00000085H   SFRSYM    DATA     BYTE      CLU1MX
      000000B2H   SFRSYM    DATA     BYTE      ADC0CN1
      000000D8H.6 SFRSYM    DATA     BIT       PCA0CN0_CR
      000000A8H.2 SFRSYM    DATA     BIT       IE_EX1
      000000C4H   SFRSYM    DATA     BYTE      PWMH
      00000091H   SFRSYM    DATA     BYTE      CLU2MX
      000000B3H   SFRSYM    DATA     BYTE      ADC0CN2
      000000C8H.7 SFRSYM    DATA     BIT       SCON1_OVR
      000000AAH   SFRSYM    DATA     BYTE      PSTAT0
      000000AEH   SFRSYM    DATA     BYTE      CLU3MX
      00000098H.7 SFRSYM    DATA     BIT       SCON0_SMODE
      000000B5H   SFRSYM    DATA     BYTE      DEVICEID
      000000A9H   SFRSYM    DATA     BYTE      CLKSEL
      000000F8H.0 SFRSYM    DATA     BIT       SPI0CN0_SPIEN
      000000C3H   SFRSYM    DATA     BYTE      PWML
      00000085H   SFRSYM    DATA     BYTE      DAC0H
      000000F0H   SFRSYM    DATA     BYTE      B
      000000BEH   SFRSYM    DATA     BYTE      ADC0H
      000000CAH   SFRSYM    DATA     WORD      TMR2RL
      00000084H   SFRSYM    DATA     BYTE      DAC0L
      000000BDH   SFRSYM    DATA     BYTE      ADC0L
      00000092H   SFRSYM    DATA     WORD      TMR3RL
      000000A2H   SFRSYM    DATA     WORD      TMR4RL
      000000D8H   SFRSYM    DATA     BYTE      PCA0CN0
      000000E0H   SFRSYM    DATA     BYTE      ACC
      000000D2H   SFRSYM    DATA     WORD      TMR5RL
      000000D9H   SFRSYM    DATA     BYTE      UART0PCF
      000000FBH   SFRSYM    DATA     WORD      PCA0CP0
      000000DAH   SFRSYM    DATA     BYTE      UART1PCF
      000000E9H   SFRSYM    DATA     WORD      PCA0CP1
      000000EBH   SFRSYM    DATA     WORD      PCA0CP2
      000000CEH   SFRSYM    DATA     BYTE      CRC0CN0
      0000008CH   SFRSYM    DATA     BYTE      TH0
      00000086H   SFRSYM    DATA     BYTE      CRC0CN1
      000000B8H.4 SFRSYM    DATA     BIT       IP_PS0
      000000FAH   SFRSYM    DATA     BYTE      UART1FCT
      0000008DH   SFRSYM    DATA     BYTE      TH1
      000000FAH   SFRSYM    DATA     BYTE      PCA0H
      000000B8H.1 SFRSYM    DATA     BIT       IP_PT0
      000000C7H   SFRSYM    DATA     BYTE      CLIE0
      000000B8H.3 SFRSYM    DATA     BIT       IP_PT1
      000000B5H   SFRSYM    DATA     WORD      ADC0ASA
      000000E8H   SFRSYM    DATA     BYTE      CLIF0
      000000C0H.2 SFRSYM    DATA     BIT       SMB0CN0_ARBLOST
      000000B8H.5 SFRSYM    DATA     BIT       IP_PT2
      0000008AH   SFRSYM    DATA     BYTE      TL0
      00000088H.2 SFRSYM    DATA     BIT       SMB1CN0_ARBLOST
      000000D0H.5 SFRSYM    DATA     BIT       PSW_F0
      000000A8H.6 SFRSYM    DATA     BIT       IE_ESPI0
      0000008BH   SFRSYM    DATA     BYTE      TL1
      000000F9H   SFRSYM    DATA     BYTE      PCA0L
      000000C0H.0 SFRSYM    DATA     BIT       SMB0CN0_SI
      000000D0H.1 SFRSYM    DATA     BIT       PSW_F1
      00000080H.0 SFRSYM    DATA     BIT       P0_B0
      000000B8H.0 SFRSYM    DATA     BIT       IP_PX0
      00000088H.0 SFRSYM    DATA     BIT       SMB1CN0_SI
      00000090H.0 SFRSYM    DATA     BIT       P1_B0
      00000080H.1 SFRSYM    DATA     BIT       P0_B1
      000000B8H.2 SFRSYM    DATA     BIT       IP_PX1
      000000ABH   SFRSYM    DATA     WORD      PWMCPUD0
LX51 LINKER/LOCATER V4.66.97.0                                                        02/23/2023  16:00:17  PAGE 55


      0000009EH   SFRSYM    DATA     BYTE      UART1LIN
      0000009BH   SFRSYM    DATA     BYTE      CMP0CN0
      000000C6H   SFRSYM    DATA     BYTE      CLEN0
      00000088H.1 SFRSYM    DATA     BIT       TCON_IE0
      000000A0H.0 SFRSYM    DATA     BIT       P2_B0
      00000090H.1 SFRSYM    DATA     BIT       P1_B1
      00000080H.2 SFRSYM    DATA     BIT       P0_B2
      000000B2H   SFRSYM    DATA     WORD      PWMCPUD1
      000000BFH   SFRSYM    DATA     BYTE      CMP1CN0
      00000099H   SFRSYM    DATA     BYTE      CMP0CN1
      00000088H.3 SFRSYM    DATA     BIT       TCON_IE1
      000000B0H.0 SFRSYM    DATA     BIT       P3_B0
      000000A0H.1 SFRSYM    DATA     BIT       P2_B1
      00000090H.2 SFRSYM    DATA     BIT       P1_B2
      00000080H.3 SFRSYM    DATA     BIT       P0_B3
      000000B9H   SFRSYM    DATA     WORD      PWMCPUD2
      000000C0H   SFRSYM    DATA     BYTE      SMB0CN0
      000000A4H   SFRSYM    DATA     BYTE      CP0CN
      000000ACH   SFRSYM    DATA     BYTE      CMP1CN1
      000000B0H.1 SFRSYM    DATA     BIT       P3_B1
      000000A0H.2 SFRSYM    DATA     BIT       P2_B2
      00000090H.3 SFRSYM    DATA     BIT       P1_B3
      00000080H.4 SFRSYM    DATA     BIT       P0_B4
      00000088H   SFRSYM    DATA     BYTE      SMB1CN0
      000000B0H.2 SFRSYM    DATA     BIT       P3_B2
      000000A0H.3 SFRSYM    DATA     BIT       P2_B3
      00000090H.4 SFRSYM    DATA     BIT       P1_B4
      00000080H.5 SFRSYM    DATA     BIT       P0_B5
      000000D8H.1 SFRSYM    DATA     BIT       UART1FCN1_RXTO0
      000000B0H.3 SFRSYM    DATA     BIT       P3_B3
      000000A0H.4 SFRSYM    DATA     BIT       P2_B4
      00000090H.5 SFRSYM    DATA     BIT       P1_B5
      00000080H.6 SFRSYM    DATA     BIT       P0_B6
      000000C5H   SFRSYM    DATA     WORD      PWMLIM
      000000EEH   SFRSYM    DATA     BYTE      EIP1H
      000000D8H.2 SFRSYM    DATA     BIT       UART1FCN1_RXTO1
      000000B0H.4 SFRSYM    DATA     BIT       P3_B4
      000000A0H.5 SFRSYM    DATA     BIT       P2_B5
      00000090H.6 SFRSYM    DATA     BIT       P1_B6
      00000080H.7 SFRSYM    DATA     BIT       P0_B7
      000000C5H   SFRSYM    DATA     BYTE      SMB0RXLN
      000000F6H   SFRSYM    DATA     BYTE      EIP2H
      000000B0H.5 SFRSYM    DATA     BIT       P3_B5
      000000A0H.6 SFRSYM    DATA     BIT       P2_B6
      00000090H.7 SFRSYM    DATA     BIT       P1_B7
      000000BCH   SFRSYM    DATA     BYTE      SMB1RXLN
      000000B0H.6 SFRSYM    DATA     BIT       P3_B6
      000000A0H.7 SFRSYM    DATA     BIT       P2_B7
      0000008AH   SFRSYM    DATA     BYTE      DAC0ALT
      000000B0H.7 SFRSYM    DATA     BIT       P3_B7
      0000009BH   SFRSYM    DATA     BYTE      PWMSTATUS
      00000083H   SFRSYM    DATA     BYTE      DPH
      000000C4H   SFRSYM    DATA     BYTE      ADC0GTH
      000000C8H.7 SFRSYM    DATA     BIT       TMR2CN0_TF2H
      000000C8H.3 SFRSYM    DATA     BIT       TMR2CN0_T2SPLIT
      000000D0H.6 SFRSYM    DATA     BIT       PSW_AC
      000000F8H   SFRSYM    DATA     BYTE      SPI0CN0
      000000D6H   SFRSYM    DATA     BYTE      HFO0CAL
      00000088H.5 SFRSYM    DATA     BIT       TCON_TF0
      00000098H.0 SFRSYM    DATA     BIT       SCON0_RI
      00000082H   SFRSYM    DATA     BYTE      DPL
      00000088H.7 SFRSYM    DATA     BIT       TCON_TF1
LX51 LINKER/LOCATER V4.66.97.0                                                        02/23/2023  16:00:17  PAGE 56


      000000C8H.0 SFRSYM    DATA     BIT       SCON1_RI
      00000099H   SFRSYM    DATA     BYTE      SBUF0
      00000087H   SFRSYM    DATA     BYTE      PCON0
      000000F2H   SFRSYM    DATA     BYTE      IPH
      000000C3H   SFRSYM    DATA     BYTE      ADC0GTL
      00000098H.7 SFRSYM    DATA     BIT       TMR4CN0_TF4H
      00000098H.3 SFRSYM    DATA     BIT       TMR4CN0_T4SPLIT
      000000C8H.6 SFRSYM    DATA     BIT       TMR2CN0_TF2L
      00000098H.1 SFRSYM    DATA     BIT       SCON0_TI
      00000092H   SFRSYM    DATA     BYTE      SBUF1
      000000CDH   SFRSYM    DATA     BYTE      PCON1
      000000C6H   SFRSYM    DATA     BYTE      ADC0LTH
      00000088H.0 SFRSYM    DATA     BIT       TCON_IT0
      000000C8H.1 SFRSYM    DATA     BIT       SCON1_TI
      000000EFH   SFRSYM    DATA     BYTE      RSTSRC
      000000FDH   SFRSYM    DATA     BYTE      P0MAT
      000000CBH   SFRSYM    DATA     BYTE      CRC0DAT
      000000C0H.7 SFRSYM    DATA     BIT       TMR5CN0_TF5H
      000000C0H.3 SFRSYM    DATA     BIT       TMR5CN0_T5SPLIT
      00000088H.2 SFRSYM    DATA     BIT       TCON_IT1
      000000D7H   SFRSYM    DATA     BYTE      SFRSTACK
      00000098H   SFRSYM    DATA     BYTE      SCON0
      000000F6H   SFRSYM    DATA     BYTE      PRTDRV
      000000EDH   SFRSYM    DATA     BYTE      P1MAT
      000000E8H.3 SFRSYM    DATA     BIT       ADC0CN0_ADWINT
      00000093H   SFRSYM    DATA     BYTE      SMOD1
      000000C8H   SFRSYM    DATA     BYTE      SCON1
      000000FBH   SFRSYM    DATA     BYTE      P2MAT
      00000098H.6 SFRSYM    DATA     BIT       TMR4CN0_TF4L
      000000E8H.4 SFRSYM    DATA     BIT       ADC0CN0_ADBUSY
      000000D6H   SFRSYM    DATA     BYTE      SMB0ADM
      000000C5H   SFRSYM    DATA     BYTE      ADC0LTL
      000000F8H.5 SFRSYM    DATA     BIT       SPI0CN0_MODF
      000000B8H.6 SFRSYM    DATA     BIT       IP_PSPI0
      000000E8H.1 SFRSYM    DATA     BIT       ADC0CN0_ADGN0
      000000FFH   SFRSYM    DATA     BYTE      SMB1ADM
      0000009CH   SFRSYM    DATA     BYTE      PCA0CLR
      000000C0H.6 SFRSYM    DATA     BIT       TMR5CN0_TF5L
      000000E8H.2 SFRSYM    DATA     BIT       ADC0CN0_ADGN1
      000000C8H   SFRSYM    DATA     BYTE      TMR2CN0
      000000E3H   SFRSYM    DATA     BYTE      PWMCKDIV
      00000091H   SFRSYM    DATA     BYTE      TMR3CN0
      000000FDH   SFRSYM    DATA     BYTE      TMR2CN1
      00000098H   SFRSYM    DATA     BYTE      TMR4CN0
      000000FEH   SFRSYM    DATA     BYTE      TMR3CN1
      000000C0H   SFRSYM    DATA     BYTE      TMR5CN0
      000000FFH   SFRSYM    DATA     BYTE      TMR4CN1
      000000D7H   SFRSYM    DATA     BYTE      SMB0ADR
      00000088H.4 SFRSYM    DATA     BIT       TCON_TR0
      000000F1H   SFRSYM    DATA     BYTE      TMR5CN1
      000000BDH   SFRSYM    DATA     BYTE      SMB1ADR
      000000C8H.4 SFRSYM    DATA     BIT       TMR2CN0_TF2CEN
      00000088H.6 SFRSYM    DATA     BIT       TCON_TR1
      000000C2H   SFRSYM    DATA     BYTE      SMB0DAT
      000000CFH   SFRSYM    DATA     BYTE      TMR2H
      000000A1H   SFRSYM    DATA     BYTE      SPI0CFG
      000000BBH   SFRSYM    DATA     BYTE      SMB1DAT
      00000095H   SFRSYM    DATA     BYTE      TMR3H
      000000D3H   SFRSYM    DATA     BYTE      CRC0CNT
      000000A5H   SFRSYM    DATA     BYTE      TMR4H
      00000098H.4 SFRSYM    DATA     BIT       TMR4CN0_TF4CEN
      000000D5H   SFRSYM    DATA     BYTE      TMR5H
LX51 LINKER/LOCATER V4.66.97.0                                                        02/23/2023  16:00:17  PAGE 57


      000000EFH   SFRSYM    DATA     BYTE      SMB0FCT
      00000096H   SFRSYM    DATA     BYTE      PCA0POL
      000000CEH   SFRSYM    DATA     BYTE      TMR2L
      000000F5H   SFRSYM    DATA     BYTE      SMB1FCT
      000000C0H.4 SFRSYM    DATA     BIT       TMR5CN0_TF5CEN
      000000F8H.7 SFRSYM    DATA     BIT       SPI0CN0_SPIF
      00000094H   SFRSYM    DATA     BYTE      TMR3L
      000000A8H.7 SFRSYM    DATA     BIT       IE_EA
      000000C3H   SFRSYM    DATA     WORD      PWM
      000000A4H   SFRSYM    DATA     BYTE      TMR4L
      000000D4H   SFRSYM    DATA     BYTE      TMR5L
      000000AFH   SFRSYM    DATA     BYTE      CLKGRP0
      000000C8H.5 SFRSYM    DATA     BIT       TMR2CN0_TF2LEN
      000000F8H.6 SFRSYM    DATA     BIT       SPI0CN0_WCOL
      000000C2H   SFRSYM    DATA     BYTE      PWMCFG0
      000000F8H.2 SFRSYM    DATA     BIT       SPI0CN0_NSSMD0
      000000D0H.7 SFRSYM    DATA     BIT       PSW_CY
      0000009DH   SFRSYM    DATA     BYTE      UART1FCN0
      000000DFH   SFRSYM    DATA     BYTE      SPI0PCF
      000000A3H   SFRSYM    DATA     BYTE      SPI0DAT
      000000C9H   SFRSYM    DATA     BYTE      PWMCFG1
      000000F8H.3 SFRSYM    DATA     BIT       SPI0CN0_NSSMD1
      000000BDH   SFRSYM    DATA     WORD      ADC0
      000000D8H   SFRSYM    DATA     BYTE      UART1FCN1
      000000D1H   SFRSYM    DATA     BYTE      PWMCFG2
      000000E8H.0 SFRSYM    DATA     BIT       CLIF0_C0FIF
      000000DFH   SFRSYM    DATA     BYTE      PWMCFG3
      00000098H.5 SFRSYM    DATA     BIT       TMR4CN0_TF4LEN
      000000E8H.2 SFRSYM    DATA     BIT       CLIF0_C1FIF
      000000D0H   SFRSYM    DATA     BYTE      PSW
      000000F7H   SFRSYM    DATA     BYTE      PCA0PWM
      000000E8H.4 SFRSYM    DATA     BIT       CLIF0_C2FIF
      000000F7H   SFRSYM    DATA     BYTE      SPI0FCT
      000000B6H   SFRSYM    DATA     BYTE      REVID
      000000C0H.5 SFRSYM    DATA     BIT       TMR5CN0_TF5LEN
      000000E8H.6 SFRSYM    DATA     BIT       CLIF0_C3FIF
      000000CCH   SFRSYM    DATA     BYTE      HFO0TRIM0
      000000B7H   SFRSYM    DATA     BYTE      FLKEY

      010006F3H   BLOCK     CODE     ---       LVL=0
      010006F3H   BLOCK     CODE     NEAR LAB  LVL=1
      00000021H   SYMBOL    DATA     BYTE      event
      ---         BLOCKEND  ---      ---       LVL=1
      010006F3H   LINE      CODE     ---       #44
      010006F3H   LINE      CODE     ---       #48
      010006F6H   LINE      CODE     ---       #58
      010006F9H   LINE      CODE     ---       #62
      010006F9H   LINE      CODE     ---       #67
      010006FEH   LINE      CODE     ---       #68
      01000701H   LINE      CODE     ---       #69
      0100070CH   LINE      CODE     ---       #70
      ---         BLOCKEND  ---      ---       LVL=0

      ---         MODULE    ---      ---       PWM
      0000001BH   PUBLIC    DATA     BYTE      current_lightness
      0000001AH   PUBLIC    DATA     BYTE      dummy
      01000817H   PUBLIC    CONST    ---       pwm_from_lightness
      01000647H   PUBLIC    CODE     ---       update_pwm
      010007D0H   PUBLIC    CODE     ---       _set_lightness_command
      01000791H   PUBLIC    CODE     ---       increase_lightness
      01000003H   PUBLIC    CODE     ---       button
      0100070EH   PUBLIC    CODE     ---       _pwm_set
LX51 LINKER/LOCATER V4.66.97.0                                                        02/23/2023  16:00:17  PAGE 58


      000000A2H   SFRSYM    DATA     BYTE      SPI0CKR
      00000080H   SFRSYM    DATA     BYTE      P0
      000000C8H.6 SFRSYM    DATA     BIT       SCON1_PERR
      000000D0H.2 SFRSYM    DATA     BIT       PSW_OV
      00000090H   SFRSYM    DATA     BYTE      P1
      000000F8H.1 SFRSYM    DATA     BIT       SPI0CN0_TXNF
      00000097H   SFRSYM    DATA     BYTE      WDTCN
      0000009AH   SFRSYM    DATA     BYTE      PWMCPH0
      000000A0H   SFRSYM    DATA     BYTE      P2
      000000B6H   SFRSYM    DATA     BYTE      PWMCPH1
      000000B0H   SFRSYM    DATA     BYTE      P3
      0000009FH   SFRSYM    DATA     BYTE      PWMIE
      000000BEH   SFRSYM    DATA     BYTE      PWMCPH2
      000000C0H.7 SFRSYM    DATA     BIT       SMB0CN0_MASTER
      000000F9H   SFRSYM    DATA     WORD      PCA0
      0000009DH   SFRSYM    DATA     BYTE      PWMIF
      000000E6H   SFRSYM    DATA     BYTE      EIE1
      00000088H.7 SFRSYM    DATA     BIT       SMB1CN0_MASTER
      000000C0H.1 SFRSYM    DATA     BIT       SMB0CN0_ACK
      000000E8H.1 SFRSYM    DATA     BIT       CLIF0_C0RIF
      00000099H   SFRSYM    DATA     BYTE      PWMCPL0
      000000F3H   SFRSYM    DATA     BYTE      EIE2
      00000088H.1 SFRSYM    DATA     BIT       SMB1CN0_ACK
      000000E8H.3 SFRSYM    DATA     BIT       CLIF0_C1RIF
      000000B5H   SFRSYM    DATA     BYTE      PWMCPL1
      000000E8H.5 SFRSYM    DATA     BIT       CLIF0_C2RIF
      000000BDH   SFRSYM    DATA     BYTE      PWMCPL2
      0000008FH   SFRSYM    DATA     BYTE      PSCTL
      000000E8H.7 SFRSYM    DATA     BIT       CLIF0_C3RIF
      000000E4H   SFRSYM    DATA     BYTE      IT01CF
      000000C0H.6 SFRSYM    DATA     BIT       SMB0CN0_TXMODE
      000000E2H   SFRSYM    DATA     BYTE      PWMDTINLIM
      000000ADH   SFRSYM    DATA     BYTE      DERIVID
      00000088H.6 SFRSYM    DATA     BIT       SMB1CN0_TXMODE
      000000A7H   SFRSYM    DATA     BYTE      SFRPAGE
      000000E1H   SFRSYM    DATA     BYTE      PWMDTIPLIM
      000000A4H   SFRSYM    DATA     BYTE      P0MDOUT
      000000A5H   SFRSYM    DATA     BYTE      P1MDOUT
      000000E8H.5 SFRSYM    DATA     BIT       ADC0CN0_ADINT
      000000CBH   SFRSYM    DATA     BYTE      TMR2RLH
      000000A6H   SFRSYM    DATA     BYTE      P2MDOUT
      000000A8H   SFRSYM    DATA     BYTE      IE
      00000093H   SFRSYM    DATA     BYTE      TMR3RLH
      0000009CH   SFRSYM    DATA     BYTE      P3MDOUT
      000000A3H   SFRSYM    DATA     BYTE      TMR4RLH
      000000BBH   SFRSYM    DATA     BYTE      EIP1
      000000D3H   SFRSYM    DATA     BYTE      TMR5RLH
      000000EDH   SFRSYM    DATA     BYTE      EIP2
      00000098H.2 SFRSYM    DATA     BIT       SCON0_RB8
      000000CAH   SFRSYM    DATA     BYTE      TMR2RLL
      000000FCH   SFRSYM    DATA     BYTE      PCA0CPH0
      00000092H   SFRSYM    DATA     BYTE      TMR3RLL
      000000EAH   SFRSYM    DATA     BYTE      PCA0CPH1
      00000098H.3 SFRSYM    DATA     BIT       SCON0_TB8
      000000F0H.0 SFRSYM    DATA     BIT       B_B0
      00000082H   SFRSYM    DATA     WORD      DP
      000000A2H   SFRSYM    DATA     BYTE      TMR4RLL
      000000ECH   SFRSYM    DATA     BYTE      PCA0CPH2
      000000F0H.1 SFRSYM    DATA     BIT       B_B1
      000000C3H   SFRSYM    DATA     WORD      ADC0GT
      000000D2H   SFRSYM    DATA     BYTE      TMR5RLL
      000000D8H.3 SFRSYM    DATA     BIT       UART1FCN1_RFRQ
LX51 LINKER/LOCATER V4.66.97.0                                                        02/23/2023  16:00:17  PAGE 59


      000000F0H.2 SFRSYM    DATA     BIT       B_B2
      000000BCH   SFRSYM    DATA     BYTE      SFRPGCN
      000000FBH   SFRSYM    DATA     BYTE      PCA0CPL0
      000000F0H.3 SFRSYM    DATA     BIT       B_B3
      000000D9H   SFRSYM    DATA     BYTE      PCA0MD
      000000DAH   SFRSYM    DATA     BYTE      PCA0CPM0
      000000E9H   SFRSYM    DATA     BYTE      PCA0CPL1
      000000D8H.7 SFRSYM    DATA     BIT       UART1FCN1_TFRQ
      000000F0H.4 SFRSYM    DATA     BIT       B_B4
      000000DBH   SFRSYM    DATA     BYTE      PCA0CPM1
      000000EBH   SFRSYM    DATA     BYTE      PCA0CPL2
      000000A1H   SFRSYM    DATA     BYTE      ADC0ASCF
      000000B6H   SFRSYM    DATA     BYTE      ADC0ASAH
      000000F0H.5 SFRSYM    DATA     BIT       B_B5
      000000E8H.6 SFRSYM    DATA     BIT       ADC0CN0_IPOEN
      000000E8H.0 SFRSYM    DATA     BIT       ADC0CN0_TEMPE
      000000DCH   SFRSYM    DATA     BYTE      PCA0CPM2
      000000B8H   SFRSYM    DATA     BYTE      IP
      000000F0H.6 SFRSYM    DATA     BIT       B_B6
      000000C5H   SFRSYM    DATA     WORD      ADC0LT
      000000D8H.6 SFRSYM    DATA     BIT       UART1FCN1_TXNF
      00000098H.5 SFRSYM    DATA     BIT       SCON0_MCE
      000000F0H.7 SFRSYM    DATA     BIT       B_B7
      000000C3H   SFRSYM    DATA     BYTE      SMB0FCN0
      000000ACH   SFRSYM    DATA     BYTE      PWMCPUDH0
      000000B5H   SFRSYM    DATA     BYTE      ADC0ASAL
      000000E1H   SFRSYM    DATA     BYTE      XBR0
      000000ADH   SFRSYM    DATA     BYTE      SMB1FCN0
      000000C4H   SFRSYM    DATA     BYTE      SMB0FCN1
      000000C1H   SFRSYM    DATA     BYTE      SMB0CF
      000000B3H   SFRSYM    DATA     BYTE      PWMCPUDH1
      000000E2H   SFRSYM    DATA     BYTE      XBR1
      000000ABH   SFRSYM    DATA     BYTE      SMB1FCN1
      000000BAH   SFRSYM    DATA     BYTE      SMB1CF
      000000BAH   SFRSYM    DATA     BYTE      PWMCPUDH2
      000000C1H   SFRSYM    DATA     BYTE      PFE0CN
      000000E7H   SFRSYM    DATA     BYTE      EMI0CN
      000000C0H.5 SFRSYM    DATA     BIT       SMB0CN0_STA
      000000E3H   SFRSYM    DATA     BYTE      XBR2
      000000B1H   SFRSYM    DATA     BYTE      CLU0CF
      000000BBH   SFRSYM    DATA     BYTE      ADC0MX
      00000088H.5 SFRSYM    DATA     BIT       SMB1CN0_STA
      000000E0H.0 SFRSYM    DATA     BIT       ACC_ACC0
      000000D1H   SFRSYM    DATA     BYTE      REF0CN
      000000ABH   SFRSYM    DATA     BYTE      PWMCPUDL0
      000000EFH   SFRSYM    DATA     BYTE      HFO0CN
      000000B3H   SFRSYM    DATA     BYTE      CLU1CF
      0000008EH   SFRSYM    DATA     BYTE      CKCON0
      000000E0H.1 SFRSYM    DATA     BIT       ACC_ACC1
      000000C9H   SFRSYM    DATA     BYTE      REG0CN
      000000C6H   SFRSYM    DATA     BYTE      PWMLIMH
      000000B2H   SFRSYM    DATA     BYTE      PWMCPUDL1
      000000CAH   SFRSYM    DATA     BYTE      CRC0IN
      000000B6H   SFRSYM    DATA     BYTE      CLU2CF
      000000A6H   SFRSYM    DATA     BYTE      CKCON1
      000000C8H.2 SFRSYM    DATA     BIT       TMR2CN0_TR2
      000000E0H.2 SFRSYM    DATA     BIT       ACC_ACC2
      000000B9H   SFRSYM    DATA     BYTE      PWMCPUDL2
      000000BFH   SFRSYM    DATA     BYTE      CLU3CF
      000000E0H.3 SFRSYM    DATA     BIT       ACC_ACC3
      00000081H   SFRSYM    DATA     BYTE      SP
      0000009DH   SFRSYM    DATA     BYTE      CMP0MD
LX51 LINKER/LOCATER V4.66.97.0                                                        02/23/2023  16:00:17  PAGE 60


      000000E0H.4 SFRSYM    DATA     BIT       ACC_ACC4
      000000B1H   SFRSYM    DATA     BYTE      LFO0CN
      000000ABH   SFRSYM    DATA     BYTE      CMP1MD
      000000D8H.0 SFRSYM    DATA     BIT       PCA0CN0_CCF0
      000000E0H.5 SFRSYM    DATA     BIT       ACC_ACC5
      000000C5H   SFRSYM    DATA     BYTE      PWMLIML
      00000098H.2 SFRSYM    DATA     BIT       TMR4CN0_TR4
      000000D8H.1 SFRSYM    DATA     BIT       PCA0CN0_CCF1
      000000E0H.6 SFRSYM    DATA     BIT       ACC_ACC6
      000000CEH   SFRSYM    DATA     WORD      TMR2
      0000009AH   SFRSYM    DATA     BYTE      SPI0FCN0
      000000C7H   SFRSYM    DATA     BYTE      ADC0ASCT
      000000D8H.2 SFRSYM    DATA     BIT       PCA0CN0_CCF2
      000000E0H.7 SFRSYM    DATA     BIT       ACC_ACC7
      00000094H   SFRSYM    DATA     WORD      TMR3
      0000009BH   SFRSYM    DATA     BYTE      SPI0FCN1
      000000C0H.2 SFRSYM    DATA     BIT       TMR5CN0_TR5
      000000A4H   SFRSYM    DATA     WORD      TMR4
      00000094H   SFRSYM    DATA     BYTE      SBCON1
      000000D4H   SFRSYM    DATA     WORD      TMR5
      000000C0H.3 SFRSYM    DATA     BIT       SMB0CN0_ACKRQ
      000000F1H   SFRSYM    DATA     BYTE      P0MDIN
      000000AFH   SFRSYM    DATA     BYTE      CLU0FN
      00000088H.3 SFRSYM    DATA     BIT       SMB1CN0_ACKRQ
      00000098H.4 SFRSYM    DATA     BIT       SCON0_REN
      000000ACH   SFRSYM    DATA     BYTE      SMB0TC
      000000F2H   SFRSYM    DATA     BYTE      P1MDIN
      000000B2H   SFRSYM    DATA     BYTE      CLU1FN
      000000C8H.4 SFRSYM    DATA     BIT       SCON1_REN
      000000B9H   SFRSYM    DATA     BYTE      SMB1TC
      000000F3H   SFRSYM    DATA     BYTE      P2MDIN
      000000B5H   SFRSYM    DATA     BYTE      CLU2FN
      000000C0H.4 SFRSYM    DATA     BIT       SMB0CN0_STO
      000000F4H   SFRSYM    DATA     BYTE      P3MDIN
      000000BEH   SFRSYM    DATA     BYTE      CLU3FN
      00000088H.4 SFRSYM    DATA     BIT       SMB1CN0_STO
      00000096H   SFRSYM    DATA     BYTE      SBRLH1
      000000FEH   SFRSYM    DATA     BYTE      P0MASK
      000000D8H.5 SFRSYM    DATA     BIT       UART1FCN1_TXHOLD
      000000EEH   SFRSYM    DATA     BYTE      P1MASK
      000000FCH   SFRSYM    DATA     BYTE      P2MASK
      000000D0H.3 SFRSYM    DATA     BIT       PSW_RS0
      000000D8H.7 SFRSYM    DATA     BIT       PCA0CN0_CF
      0000009EH   SFRSYM    DATA     BYTE      PCA0CENT
      000000D2H   SFRSYM    DATA     BYTE      CRC0ST
      000000F8H.4 SFRSYM    DATA     BIT       SPI0CN0_RXOVRN
      000000D0H.4 SFRSYM    DATA     BIT       PSW_RS1
      00000095H   SFRSYM    DATA     BYTE      SBRLL1
      000000C8H.2 SFRSYM    DATA     BIT       SCON1_RBX
      00000091H   SFRSYM    DATA     BYTE      DAC0CF0
      000000C8H.0 SFRSYM    DATA     BIT       TMR2CN0_T2XCLK0
      00000092H   SFRSYM    DATA     BYTE      DAC0CF1
      000000B9H   SFRSYM    DATA     BYTE      ADC0CF1
      000000C8H.1 SFRSYM    DATA     BIT       TMR2CN0_T2XCLK1
      000000C8H.3 SFRSYM    DATA     BIT       SCON1_TBX
      000000E8H.7 SFRSYM    DATA     BIT       ADC0CN0_ADEN
      00000089H   SFRSYM    DATA     BYTE      TMOD
      00000088H   SFRSYM    DATA     BYTE      TCON
      000000DFH   SFRSYM    DATA     BYTE      ADC0CF2
      000000CFH   SFRSYM    DATA     BYTE      CRC0FLIP
      000000D0H.0 SFRSYM    DATA     BIT       PSW_PARITY
      000000A8H.4 SFRSYM    DATA     BIT       IE_ES0
LX51 LINKER/LOCATER V4.66.97.0                                                        02/23/2023  16:00:17  PAGE 61


      0000009FH   SFRSYM    DATA     BYTE      CMP0MX
      00000098H.0 SFRSYM    DATA     BIT       TMR4CN0_T4XCLK0
      000000A8H.1 SFRSYM    DATA     BIT       IE_ET0
      000000AAH   SFRSYM    DATA     BYTE      CMP1MX
      00000098H.1 SFRSYM    DATA     BIT       TMR4CN0_T4XCLK1
      000000A8H.3 SFRSYM    DATA     BIT       IE_ET1
      00000099H   SFRSYM    DATA     WORD      PWMCP0
      000000D4H   SFRSYM    DATA     BYTE      P0SKIP
      000000D1H   SFRSYM    DATA     BYTE      CLOUT0
      000000D8H.0 SFRSYM    DATA     BIT       UART1FCN1_RIE
      000000C0H.0 SFRSYM    DATA     BIT       TMR5CN0_T5XCLK0
      000000A8H.5 SFRSYM    DATA     BIT       IE_ET2
      000000B5H   SFRSYM    DATA     WORD      PWMCP1
      000000D5H   SFRSYM    DATA     BYTE      P1SKIP
      000000C0H.1 SFRSYM    DATA     BIT       TMR5CN0_T5XCLK1
      000000BDH   SFRSYM    DATA     WORD      PWMCP2
      000000CCH   SFRSYM    DATA     BYTE      P2SKIP
      00000084H   SFRSYM    DATA     BYTE      CLU0MX
      000000E8H   SFRSYM    DATA     BYTE      ADC0CN0
      000000D8H.4 SFRSYM    DATA     BIT       UART1FCN1_TIE
      000000A8H.0 SFRSYM    DATA     BIT       IE_EX0
      00000085H   SFRSYM    DATA     BYTE      CLU1MX
      000000B2H   SFRSYM    DATA     BYTE      ADC0CN1
      000000D8H.6 SFRSYM    DATA     BIT       PCA0CN0_CR
      000000A8H.2 SFRSYM    DATA     BIT       IE_EX1
      000000C4H   SFRSYM    DATA     BYTE      PWMH
      00000091H   SFRSYM    DATA     BYTE      CLU2MX
      000000B3H   SFRSYM    DATA     BYTE      ADC0CN2
      000000C8H.7 SFRSYM    DATA     BIT       SCON1_OVR
      000000AAH   SFRSYM    DATA     BYTE      PSTAT0
      000000AEH   SFRSYM    DATA     BYTE      CLU3MX
      00000098H.7 SFRSYM    DATA     BIT       SCON0_SMODE
      000000B5H   SFRSYM    DATA     BYTE      DEVICEID
      000000A9H   SFRSYM    DATA     BYTE      CLKSEL
      000000F8H.0 SFRSYM    DATA     BIT       SPI0CN0_SPIEN
      000000C3H   SFRSYM    DATA     BYTE      PWML
      00000085H   SFRSYM    DATA     BYTE      DAC0H
      000000F0H   SFRSYM    DATA     BYTE      B
      000000BEH   SFRSYM    DATA     BYTE      ADC0H
      000000CAH   SFRSYM    DATA     WORD      TMR2RL
      00000084H   SFRSYM    DATA     BYTE      DAC0L
      000000BDH   SFRSYM    DATA     BYTE      ADC0L
      00000092H   SFRSYM    DATA     WORD      TMR3RL
      000000A2H   SFRSYM    DATA     WORD      TMR4RL
      000000D8H   SFRSYM    DATA     BYTE      PCA0CN0
      000000E0H   SFRSYM    DATA     BYTE      ACC
      000000D2H   SFRSYM    DATA     WORD      TMR5RL
      000000D9H   SFRSYM    DATA     BYTE      UART0PCF
      000000FBH   SFRSYM    DATA     WORD      PCA0CP0
      000000DAH   SFRSYM    DATA     BYTE      UART1PCF
      000000E9H   SFRSYM    DATA     WORD      PCA0CP1
      000000EBH   SFRSYM    DATA     WORD      PCA0CP2
      000000CEH   SFRSYM    DATA     BYTE      CRC0CN0
      0000008CH   SFRSYM    DATA     BYTE      TH0
      00000086H   SFRSYM    DATA     BYTE      CRC0CN1
      000000B8H.4 SFRSYM    DATA     BIT       IP_PS0
      000000FAH   SFRSYM    DATA     BYTE      UART1FCT
      0000008DH   SFRSYM    DATA     BYTE      TH1
      000000FAH   SFRSYM    DATA     BYTE      PCA0H
      000000B8H.1 SFRSYM    DATA     BIT       IP_PT0
      000000C7H   SFRSYM    DATA     BYTE      CLIE0
      000000B8H.3 SFRSYM    DATA     BIT       IP_PT1
LX51 LINKER/LOCATER V4.66.97.0                                                        02/23/2023  16:00:17  PAGE 62


      000000B5H   SFRSYM    DATA     WORD      ADC0ASA
      000000E8H   SFRSYM    DATA     BYTE      CLIF0
      000000C0H.2 SFRSYM    DATA     BIT       SMB0CN0_ARBLOST
      000000B8H.5 SFRSYM    DATA     BIT       IP_PT2
      0000008AH   SFRSYM    DATA     BYTE      TL0
      00000088H.2 SFRSYM    DATA     BIT       SMB1CN0_ARBLOST
      000000D0H.5 SFRSYM    DATA     BIT       PSW_F0
      000000A8H.6 SFRSYM    DATA     BIT       IE_ESPI0
      0000008BH   SFRSYM    DATA     BYTE      TL1
      000000F9H   SFRSYM    DATA     BYTE      PCA0L
      000000C0H.0 SFRSYM    DATA     BIT       SMB0CN0_SI
      000000D0H.1 SFRSYM    DATA     BIT       PSW_F1
      00000080H.0 SFRSYM    DATA     BIT       P0_B0
      000000B8H.0 SFRSYM    DATA     BIT       IP_PX0
      00000088H.0 SFRSYM    DATA     BIT       SMB1CN0_SI
      00000090H.0 SFRSYM    DATA     BIT       P1_B0
      00000080H.1 SFRSYM    DATA     BIT       P0_B1
      000000B8H.2 SFRSYM    DATA     BIT       IP_PX1
      000000ABH   SFRSYM    DATA     WORD      PWMCPUD0
      0000009EH   SFRSYM    DATA     BYTE      UART1LIN
      0000009BH   SFRSYM    DATA     BYTE      CMP0CN0
      000000C6H   SFRSYM    DATA     BYTE      CLEN0
      00000088H.1 SFRSYM    DATA     BIT       TCON_IE0
      000000A0H.0 SFRSYM    DATA     BIT       P2_B0
      00000090H.1 SFRSYM    DATA     BIT       P1_B1
      00000080H.2 SFRSYM    DATA     BIT       P0_B2
      000000B2H   SFRSYM    DATA     WORD      PWMCPUD1
      000000BFH   SFRSYM    DATA     BYTE      CMP1CN0
      00000099H   SFRSYM    DATA     BYTE      CMP0CN1
      00000088H.3 SFRSYM    DATA     BIT       TCON_IE1
      000000B0H.0 SFRSYM    DATA     BIT       P3_B0
      000000A0H.1 SFRSYM    DATA     BIT       P2_B1
      00000090H.2 SFRSYM    DATA     BIT       P1_B2
      00000080H.3 SFRSYM    DATA     BIT       P0_B3
      000000B9H   SFRSYM    DATA     WORD      PWMCPUD2
      000000C0H   SFRSYM    DATA     BYTE      SMB0CN0
      000000A4H   SFRSYM    DATA     BYTE      CP0CN
      000000ACH   SFRSYM    DATA     BYTE      CMP1CN1
      000000B0H.1 SFRSYM    DATA     BIT       P3_B1
      000000A0H.2 SFRSYM    DATA     BIT       P2_B2
      00000090H.3 SFRSYM    DATA     BIT       P1_B3
      00000080H.4 SFRSYM    DATA     BIT       P0_B4
      00000088H   SFRSYM    DATA     BYTE      SMB1CN0
      000000B0H.2 SFRSYM    DATA     BIT       P3_B2
      000000A0H.3 SFRSYM    DATA     BIT       P2_B3
      00000090H.4 SFRSYM    DATA     BIT       P1_B4
      00000080H.5 SFRSYM    DATA     BIT       P0_B5
      000000D8H.1 SFRSYM    DATA     BIT       UART1FCN1_RXTO0
      000000B0H.3 SFRSYM    DATA     BIT       P3_B3
      000000A0H.4 SFRSYM    DATA     BIT       P2_B4
      00000090H.5 SFRSYM    DATA     BIT       P1_B5
      00000080H.6 SFRSYM    DATA     BIT       P0_B6
      000000C5H   SFRSYM    DATA     WORD      PWMLIM
      000000EEH   SFRSYM    DATA     BYTE      EIP1H
      000000D8H.2 SFRSYM    DATA     BIT       UART1FCN1_RXTO1
      000000B0H.4 SFRSYM    DATA     BIT       P3_B4
      000000A0H.5 SFRSYM    DATA     BIT       P2_B5
      00000090H.6 SFRSYM    DATA     BIT       P1_B6
      00000080H.7 SFRSYM    DATA     BIT       P0_B7
      000000C5H   SFRSYM    DATA     BYTE      SMB0RXLN
      000000F6H   SFRSYM    DATA     BYTE      EIP2H
      000000B0H.5 SFRSYM    DATA     BIT       P3_B5
LX51 LINKER/LOCATER V4.66.97.0                                                        02/23/2023  16:00:17  PAGE 63


      000000A0H.6 SFRSYM    DATA     BIT       P2_B6
      00000090H.7 SFRSYM    DATA     BIT       P1_B7
      000000BCH   SFRSYM    DATA     BYTE      SMB1RXLN
      000000B0H.6 SFRSYM    DATA     BIT       P3_B6
      000000A0H.7 SFRSYM    DATA     BIT       P2_B7
      0000008AH   SFRSYM    DATA     BYTE      DAC0ALT
      000000B0H.7 SFRSYM    DATA     BIT       P3_B7
      0000009BH   SFRSYM    DATA     BYTE      PWMSTATUS
      00000083H   SFRSYM    DATA     BYTE      DPH
      000000C4H   SFRSYM    DATA     BYTE      ADC0GTH
      000000C8H.7 SFRSYM    DATA     BIT       TMR2CN0_TF2H
      000000C8H.3 SFRSYM    DATA     BIT       TMR2CN0_T2SPLIT
      000000D0H.6 SFRSYM    DATA     BIT       PSW_AC
      000000F8H   SFRSYM    DATA     BYTE      SPI0CN0
      000000D6H   SFRSYM    DATA     BYTE      HFO0CAL
      00000088H.5 SFRSYM    DATA     BIT       TCON_TF0
      00000098H.0 SFRSYM    DATA     BIT       SCON0_RI
      00000082H   SFRSYM    DATA     BYTE      DPL
      00000088H.7 SFRSYM    DATA     BIT       TCON_TF1
      000000C8H.0 SFRSYM    DATA     BIT       SCON1_RI
      00000099H   SFRSYM    DATA     BYTE      SBUF0
      00000087H   SFRSYM    DATA     BYTE      PCON0
      000000F2H   SFRSYM    DATA     BYTE      IPH
      000000C3H   SFRSYM    DATA     BYTE      ADC0GTL
      00000098H.7 SFRSYM    DATA     BIT       TMR4CN0_TF4H
      00000098H.3 SFRSYM    DATA     BIT       TMR4CN0_T4SPLIT
      000000C8H.6 SFRSYM    DATA     BIT       TMR2CN0_TF2L
      00000098H.1 SFRSYM    DATA     BIT       SCON0_TI
      00000092H   SFRSYM    DATA     BYTE      SBUF1
      000000CDH   SFRSYM    DATA     BYTE      PCON1
      000000C6H   SFRSYM    DATA     BYTE      ADC0LTH
      00000088H.0 SFRSYM    DATA     BIT       TCON_IT0
      000000C8H.1 SFRSYM    DATA     BIT       SCON1_TI
      000000EFH   SFRSYM    DATA     BYTE      RSTSRC
      000000FDH   SFRSYM    DATA     BYTE      P0MAT
      000000CBH   SFRSYM    DATA     BYTE      CRC0DAT
      000000C0H.7 SFRSYM    DATA     BIT       TMR5CN0_TF5H
      000000C0H.3 SFRSYM    DATA     BIT       TMR5CN0_T5SPLIT
      00000088H.2 SFRSYM    DATA     BIT       TCON_IT1
      000000D7H   SFRSYM    DATA     BYTE      SFRSTACK
      00000098H   SFRSYM    DATA     BYTE      SCON0
      000000F6H   SFRSYM    DATA     BYTE      PRTDRV
      000000EDH   SFRSYM    DATA     BYTE      P1MAT
      000000E8H.3 SFRSYM    DATA     BIT       ADC0CN0_ADWINT
      00000093H   SFRSYM    DATA     BYTE      SMOD1
      000000C8H   SFRSYM    DATA     BYTE      SCON1
      000000FBH   SFRSYM    DATA     BYTE      P2MAT
      00000098H.6 SFRSYM    DATA     BIT       TMR4CN0_TF4L
      000000E8H.4 SFRSYM    DATA     BIT       ADC0CN0_ADBUSY
      000000D6H   SFRSYM    DATA     BYTE      SMB0ADM
      000000C5H   SFRSYM    DATA     BYTE      ADC0LTL
      000000F8H.5 SFRSYM    DATA     BIT       SPI0CN0_MODF
      000000B8H.6 SFRSYM    DATA     BIT       IP_PSPI0
      000000E8H.1 SFRSYM    DATA     BIT       ADC0CN0_ADGN0
      000000FFH   SFRSYM    DATA     BYTE      SMB1ADM
      0000009CH   SFRSYM    DATA     BYTE      PCA0CLR
      000000C0H.6 SFRSYM    DATA     BIT       TMR5CN0_TF5L
      000000E8H.2 SFRSYM    DATA     BIT       ADC0CN0_ADGN1
      000000C8H   SFRSYM    DATA     BYTE      TMR2CN0
      000000E3H   SFRSYM    DATA     BYTE      PWMCKDIV
      00000091H   SFRSYM    DATA     BYTE      TMR3CN0
      000000FDH   SFRSYM    DATA     BYTE      TMR2CN1
LX51 LINKER/LOCATER V4.66.97.0                                                        02/23/2023  16:00:17  PAGE 64


      00000098H   SFRSYM    DATA     BYTE      TMR4CN0
      000000FEH   SFRSYM    DATA     BYTE      TMR3CN1
      000000C0H   SFRSYM    DATA     BYTE      TMR5CN0
      000000FFH   SFRSYM    DATA     BYTE      TMR4CN1
      000000D7H   SFRSYM    DATA     BYTE      SMB0ADR
      00000088H.4 SFRSYM    DATA     BIT       TCON_TR0
      000000F1H   SFRSYM    DATA     BYTE      TMR5CN1
      000000BDH   SFRSYM    DATA     BYTE      SMB1ADR
      000000C8H.4 SFRSYM    DATA     BIT       TMR2CN0_TF2CEN
      00000088H.6 SFRSYM    DATA     BIT       TCON_TR1
      000000C2H   SFRSYM    DATA     BYTE      SMB0DAT
      000000CFH   SFRSYM    DATA     BYTE      TMR2H
      000000A1H   SFRSYM    DATA     BYTE      SPI0CFG
      000000BBH   SFRSYM    DATA     BYTE      SMB1DAT
      00000095H   SFRSYM    DATA     BYTE      TMR3H
      000000D3H   SFRSYM    DATA     BYTE      CRC0CNT
      000000A5H   SFRSYM    DATA     BYTE      TMR4H
      00000098H.4 SFRSYM    DATA     BIT       TMR4CN0_TF4CEN
      000000D5H   SFRSYM    DATA     BYTE      TMR5H
      000000EFH   SFRSYM    DATA     BYTE      SMB0FCT
      00000096H   SFRSYM    DATA     BYTE      PCA0POL
      000000CEH   SFRSYM    DATA     BYTE      TMR2L
      000000F5H   SFRSYM    DATA     BYTE      SMB1FCT
      000000C0H.4 SFRSYM    DATA     BIT       TMR5CN0_TF5CEN
      000000F8H.7 SFRSYM    DATA     BIT       SPI0CN0_SPIF
      00000094H   SFRSYM    DATA     BYTE      TMR3L
      000000A8H.7 SFRSYM    DATA     BIT       IE_EA
      000000C3H   SFRSYM    DATA     WORD      PWM
      000000A4H   SFRSYM    DATA     BYTE      TMR4L
      000000D4H   SFRSYM    DATA     BYTE      TMR5L
      000000AFH   SFRSYM    DATA     BYTE      CLKGRP0
      000000C8H.5 SFRSYM    DATA     BIT       TMR2CN0_TF2LEN
      000000F8H.6 SFRSYM    DATA     BIT       SPI0CN0_WCOL
      000000C2H   SFRSYM    DATA     BYTE      PWMCFG0
      000000F8H.2 SFRSYM    DATA     BIT       SPI0CN0_NSSMD0
      000000D0H.7 SFRSYM    DATA     BIT       PSW_CY
      0000009DH   SFRSYM    DATA     BYTE      UART1FCN0
      000000DFH   SFRSYM    DATA     BYTE      SPI0PCF
      000000A3H   SFRSYM    DATA     BYTE      SPI0DAT
      000000C9H   SFRSYM    DATA     BYTE      PWMCFG1
      000000F8H.3 SFRSYM    DATA     BIT       SPI0CN0_NSSMD1
      000000BDH   SFRSYM    DATA     WORD      ADC0
      000000D8H   SFRSYM    DATA     BYTE      UART1FCN1
      000000D1H   SFRSYM    DATA     BYTE      PWMCFG2
      000000E8H.0 SFRSYM    DATA     BIT       CLIF0_C0FIF
      000000DFH   SFRSYM    DATA     BYTE      PWMCFG3
      00000098H.5 SFRSYM    DATA     BIT       TMR4CN0_TF4LEN
      000000E8H.2 SFRSYM    DATA     BIT       CLIF0_C1FIF
      000000D0H   SFRSYM    DATA     BYTE      PSW
      000000F7H   SFRSYM    DATA     BYTE      PCA0PWM
      000000E8H.4 SFRSYM    DATA     BIT       CLIF0_C2FIF
      000000F7H   SFRSYM    DATA     BYTE      SPI0FCT
      000000B6H   SFRSYM    DATA     BYTE      REVID
      000000C0H.5 SFRSYM    DATA     BIT       TMR5CN0_TF5LEN
      000000E8H.6 SFRSYM    DATA     BIT       CLIF0_C3FIF
      000000CCH   SFRSYM    DATA     BYTE      HFO0TRIM0
      000000B7H   SFRSYM    DATA     BYTE      FLKEY

      0100070EH   BLOCK     CODE     ---       LVL=0
      00000006H   SYMBOL    DATA     WORD      channel0
      00000004H   SYMBOL    DATA     WORD      channel1
      0100070EH   BLOCK     CODE     NEAR LAB  LVL=1
LX51 LINKER/LOCATER V4.66.97.0                                                        02/23/2023  16:00:17  PAGE 65


      00000001H   SYMBOL    DATA     BYTE      sfrpage_prev
      ---         BLOCKEND  ---      ---       LVL=1
      0100070EH   LINE      CODE     ---       #14
      0100070EH   LINE      CODE     ---       #15
      0100070EH   LINE      CODE     ---       #19
      01000710H   LINE      CODE     ---       #20
      01000713H   LINE      CODE     ---       #30
      01000716H   LINE      CODE     ---       #31
      01000719H   LINE      CODE     ---       #32
      0100071CH   LINE      CODE     ---       #33
      0100071FH   LINE      CODE     ---       #34
      01000722H   LINE      CODE     ---       #35
      01000725H   LINE      CODE     ---       #38
      01000727H   LINE      CODE     ---       #39
      ---         BLOCKEND  ---      ---       LVL=0

      01000003H   BLOCK     CODE     ---       LVL=0
      01000003H   LINE      CODE     ---       #72
      01000003H   LINE      CODE     ---       #73
      0100000BH   LINE      CODE     ---       #74
      0100000FH   LINE      CODE     ---       #75
      01000012H   LINE      CODE     ---       #76
      01000015H   LINE      CODE     ---       #77
      01000017H   LINE      CODE     ---       #78
      01000017H   LINE      CODE     ---       #79
      0100001AH   LINE      CODE     ---       #80
      0100001CH   LINE      CODE     ---       #81
      0100001CH   LINE      CODE     ---       #82
      0100001FH   LINE      CODE     ---       #83
      0100001FH   LINE      CODE     ---       #85
      ---         BLOCKEND  ---      ---       LVL=0

      01000791H   BLOCK     CODE     ---       LVL=0
      01000791H   LINE      CODE     ---       #87
      01000791H   LINE      CODE     ---       #89
      01000797H   LINE      CODE     ---       #90
      0100079BH   LINE      CODE     ---       #92
      0100079BH   LINE      CODE     ---       #93
      0100079FH   LINE      CODE     ---       #94
      ---         BLOCKEND  ---      ---       LVL=0
      00000007H   SYMBOL    DATA     BYTE      lightness

      010007D0H   BLOCK     CODE     ---       LVL=0
      00000001H   SYMBOL    DATA     ---       args
      010007D0H   LINE      CODE     ---       #102
      010007D0H   LINE      CODE     ---       #103
      010007D5H   LINE      CODE     ---       #104
      010007D8H   LINE      CODE     ---       #105
      010007DAH   LINE      CODE     ---       #106
      ---         BLOCKEND  ---      ---       LVL=0

      01000647H   BLOCK     CODE     ---       LVL=0
      01000647H   BLOCK     CODE     NEAR LAB  LVL=1
      00000002H   SYMBOL    DATA     WORD      pwm
      ---         BLOCKEND  ---      ---       LVL=1
      01000647H   LINE      CODE     ---       #108
      01000647H   LINE      CODE     ---       #110
      01000669H   LINE      CODE     ---       #111
      ---         BLOCKEND  ---      ---       LVL=0

      ---         MODULE    ---      ---       STATE_MACHINE
      00000052H   PUBLIC    DATA     ---       stateTransMatrix
LX51 LINKER/LOCATER V4.66.97.0                                                        02/23/2023  16:00:17  PAGE 66


      00000051H   PUBLIC    DATA     BYTE      current_event
      00000050H   PUBLIC    DATA     BYTE      current_state
      01000811H   PUBLIC    CODE     ---       fetch_event
      0100035BH   PUBLIC    CODE     ---       _state_machine_run_iteration
      01000020H   PUBLIC    CODE     ---       empty
      000000A2H   SFRSYM    DATA     BYTE      SPI0CKR
      00000080H   SFRSYM    DATA     BYTE      P0
      000000C8H.6 SFRSYM    DATA     BIT       SCON1_PERR
      000000D0H.2 SFRSYM    DATA     BIT       PSW_OV
      00000090H   SFRSYM    DATA     BYTE      P1
      000000F8H.1 SFRSYM    DATA     BIT       SPI0CN0_TXNF
      00000097H   SFRSYM    DATA     BYTE      WDTCN
      0000009AH   SFRSYM    DATA     BYTE      PWMCPH0
      000000A0H   SFRSYM    DATA     BYTE      P2
      000000B6H   SFRSYM    DATA     BYTE      PWMCPH1
      000000B0H   SFRSYM    DATA     BYTE      P3
      0000009FH   SFRSYM    DATA     BYTE      PWMIE
      000000BEH   SFRSYM    DATA     BYTE      PWMCPH2
      000000C0H.7 SFRSYM    DATA     BIT       SMB0CN0_MASTER
      000000F9H   SFRSYM    DATA     WORD      PCA0
      0000009DH   SFRSYM    DATA     BYTE      PWMIF
      000000E6H   SFRSYM    DATA     BYTE      EIE1
      00000088H.7 SFRSYM    DATA     BIT       SMB1CN0_MASTER
      000000C0H.1 SFRSYM    DATA     BIT       SMB0CN0_ACK
      000000E8H.1 SFRSYM    DATA     BIT       CLIF0_C0RIF
      00000099H   SFRSYM    DATA     BYTE      PWMCPL0
      000000F3H   SFRSYM    DATA     BYTE      EIE2
      00000088H.1 SFRSYM    DATA     BIT       SMB1CN0_ACK
      000000E8H.3 SFRSYM    DATA     BIT       CLIF0_C1RIF
      000000B5H   SFRSYM    DATA     BYTE      PWMCPL1
      000000E8H.5 SFRSYM    DATA     BIT       CLIF0_C2RIF
      000000BDH   SFRSYM    DATA     BYTE      PWMCPL2
      0000008FH   SFRSYM    DATA     BYTE      PSCTL
      000000E8H.7 SFRSYM    DATA     BIT       CLIF0_C3RIF
      000000E4H   SFRSYM    DATA     BYTE      IT01CF
      000000C0H.6 SFRSYM    DATA     BIT       SMB0CN0_TXMODE
      000000E2H   SFRSYM    DATA     BYTE      PWMDTINLIM
      000000ADH   SFRSYM    DATA     BYTE      DERIVID
      00000088H.6 SFRSYM    DATA     BIT       SMB1CN0_TXMODE
      000000A7H   SFRSYM    DATA     BYTE      SFRPAGE
      000000E1H   SFRSYM    DATA     BYTE      PWMDTIPLIM
      000000A4H   SFRSYM    DATA     BYTE      P0MDOUT
      000000A5H   SFRSYM    DATA     BYTE      P1MDOUT
      000000E8H.5 SFRSYM    DATA     BIT       ADC0CN0_ADINT
      000000CBH   SFRSYM    DATA     BYTE      TMR2RLH
      000000A6H   SFRSYM    DATA     BYTE      P2MDOUT
      000000A8H   SFRSYM    DATA     BYTE      IE
      00000093H   SFRSYM    DATA     BYTE      TMR3RLH
      0000009CH   SFRSYM    DATA     BYTE      P3MDOUT
      000000A3H   SFRSYM    DATA     BYTE      TMR4RLH
      000000BBH   SFRSYM    DATA     BYTE      EIP1
      000000D3H   SFRSYM    DATA     BYTE      TMR5RLH
      000000EDH   SFRSYM    DATA     BYTE      EIP2
      00000098H.2 SFRSYM    DATA     BIT       SCON0_RB8
      000000CAH   SFRSYM    DATA     BYTE      TMR2RLL
      000000FCH   SFRSYM    DATA     BYTE      PCA0CPH0
      00000092H   SFRSYM    DATA     BYTE      TMR3RLL
      000000EAH   SFRSYM    DATA     BYTE      PCA0CPH1
      00000098H.3 SFRSYM    DATA     BIT       SCON0_TB8
      000000F0H.0 SFRSYM    DATA     BIT       B_B0
      00000082H   SFRSYM    DATA     WORD      DP
      000000A2H   SFRSYM    DATA     BYTE      TMR4RLL
LX51 LINKER/LOCATER V4.66.97.0                                                        02/23/2023  16:00:17  PAGE 67


      000000ECH   SFRSYM    DATA     BYTE      PCA0CPH2
      000000F0H.1 SFRSYM    DATA     BIT       B_B1
      000000C3H   SFRSYM    DATA     WORD      ADC0GT
      000000D2H   SFRSYM    DATA     BYTE      TMR5RLL
      000000D8H.3 SFRSYM    DATA     BIT       UART1FCN1_RFRQ
      000000F0H.2 SFRSYM    DATA     BIT       B_B2
      000000BCH   SFRSYM    DATA     BYTE      SFRPGCN
      000000FBH   SFRSYM    DATA     BYTE      PCA0CPL0
      000000F0H.3 SFRSYM    DATA     BIT       B_B3
      000000D9H   SFRSYM    DATA     BYTE      PCA0MD
      000000DAH   SFRSYM    DATA     BYTE      PCA0CPM0
      000000E9H   SFRSYM    DATA     BYTE      PCA0CPL1
      000000D8H.7 SFRSYM    DATA     BIT       UART1FCN1_TFRQ
      000000F0H.4 SFRSYM    DATA     BIT       B_B4
      000000DBH   SFRSYM    DATA     BYTE      PCA0CPM1
      000000EBH   SFRSYM    DATA     BYTE      PCA0CPL2
      000000A1H   SFRSYM    DATA     BYTE      ADC0ASCF
      000000B6H   SFRSYM    DATA     BYTE      ADC0ASAH
      000000F0H.5 SFRSYM    DATA     BIT       B_B5
      000000E8H.6 SFRSYM    DATA     BIT       ADC0CN0_IPOEN
      000000E8H.0 SFRSYM    DATA     BIT       ADC0CN0_TEMPE
      000000DCH   SFRSYM    DATA     BYTE      PCA0CPM2
      000000B8H   SFRSYM    DATA     BYTE      IP
      000000F0H.6 SFRSYM    DATA     BIT       B_B6
      000000C5H   SFRSYM    DATA     WORD      ADC0LT
      000000D8H.6 SFRSYM    DATA     BIT       UART1FCN1_TXNF
      00000098H.5 SFRSYM    DATA     BIT       SCON0_MCE
      000000F0H.7 SFRSYM    DATA     BIT       B_B7
      000000C3H   SFRSYM    DATA     BYTE      SMB0FCN0
      000000ACH   SFRSYM    DATA     BYTE      PWMCPUDH0
      000000B5H   SFRSYM    DATA     BYTE      ADC0ASAL
      000000E1H   SFRSYM    DATA     BYTE      XBR0
      000000ADH   SFRSYM    DATA     BYTE      SMB1FCN0
      000000C4H   SFRSYM    DATA     BYTE      SMB0FCN1
      000000C1H   SFRSYM    DATA     BYTE      SMB0CF
      000000B3H   SFRSYM    DATA     BYTE      PWMCPUDH1
      000000E2H   SFRSYM    DATA     BYTE      XBR1
      000000ABH   SFRSYM    DATA     BYTE      SMB1FCN1
      000000BAH   SFRSYM    DATA     BYTE      SMB1CF
      000000BAH   SFRSYM    DATA     BYTE      PWMCPUDH2
      000000C1H   SFRSYM    DATA     BYTE      PFE0CN
      000000E7H   SFRSYM    DATA     BYTE      EMI0CN
      000000C0H.5 SFRSYM    DATA     BIT       SMB0CN0_STA
      000000E3H   SFRSYM    DATA     BYTE      XBR2
      000000B1H   SFRSYM    DATA     BYTE      CLU0CF
      000000BBH   SFRSYM    DATA     BYTE      ADC0MX
      00000088H.5 SFRSYM    DATA     BIT       SMB1CN0_STA
      000000E0H.0 SFRSYM    DATA     BIT       ACC_ACC0
      000000D1H   SFRSYM    DATA     BYTE      REF0CN
      000000ABH   SFRSYM    DATA     BYTE      PWMCPUDL0
      000000EFH   SFRSYM    DATA     BYTE      HFO0CN
      000000B3H   SFRSYM    DATA     BYTE      CLU1CF
      0000008EH   SFRSYM    DATA     BYTE      CKCON0
      000000E0H.1 SFRSYM    DATA     BIT       ACC_ACC1
      000000C9H   SFRSYM    DATA     BYTE      REG0CN
      000000C6H   SFRSYM    DATA     BYTE      PWMLIMH
      000000B2H   SFRSYM    DATA     BYTE      PWMCPUDL1
      000000CAH   SFRSYM    DATA     BYTE      CRC0IN
      000000B6H   SFRSYM    DATA     BYTE      CLU2CF
      000000A6H   SFRSYM    DATA     BYTE      CKCON1
      000000C8H.2 SFRSYM    DATA     BIT       TMR2CN0_TR2
      000000E0H.2 SFRSYM    DATA     BIT       ACC_ACC2
LX51 LINKER/LOCATER V4.66.97.0                                                        02/23/2023  16:00:17  PAGE 68


      000000B9H   SFRSYM    DATA     BYTE      PWMCPUDL2
      000000BFH   SFRSYM    DATA     BYTE      CLU3CF
      000000E0H.3 SFRSYM    DATA     BIT       ACC_ACC3
      00000081H   SFRSYM    DATA     BYTE      SP
      0000009DH   SFRSYM    DATA     BYTE      CMP0MD
      000000E0H.4 SFRSYM    DATA     BIT       ACC_ACC4
      000000B1H   SFRSYM    DATA     BYTE      LFO0CN
      000000ABH   SFRSYM    DATA     BYTE      CMP1MD
      000000D8H.0 SFRSYM    DATA     BIT       PCA0CN0_CCF0
      000000E0H.5 SFRSYM    DATA     BIT       ACC_ACC5
      000000C5H   SFRSYM    DATA     BYTE      PWMLIML
      00000098H.2 SFRSYM    DATA     BIT       TMR4CN0_TR4
      000000D8H.1 SFRSYM    DATA     BIT       PCA0CN0_CCF1
      000000E0H.6 SFRSYM    DATA     BIT       ACC_ACC6
      000000CEH   SFRSYM    DATA     WORD      TMR2
      0000009AH   SFRSYM    DATA     BYTE      SPI0FCN0
      000000C7H   SFRSYM    DATA     BYTE      ADC0ASCT
      000000D8H.2 SFRSYM    DATA     BIT       PCA0CN0_CCF2
      000000E0H.7 SFRSYM    DATA     BIT       ACC_ACC7
      00000094H   SFRSYM    DATA     WORD      TMR3
      0000009BH   SFRSYM    DATA     BYTE      SPI0FCN1
      000000C0H.2 SFRSYM    DATA     BIT       TMR5CN0_TR5
      000000A4H   SFRSYM    DATA     WORD      TMR4
      00000094H   SFRSYM    DATA     BYTE      SBCON1
      000000D4H   SFRSYM    DATA     WORD      TMR5
      000000C0H.3 SFRSYM    DATA     BIT       SMB0CN0_ACKRQ
      000000F1H   SFRSYM    DATA     BYTE      P0MDIN
      000000AFH   SFRSYM    DATA     BYTE      CLU0FN
      00000088H.3 SFRSYM    DATA     BIT       SMB1CN0_ACKRQ
      00000098H.4 SFRSYM    DATA     BIT       SCON0_REN
      000000ACH   SFRSYM    DATA     BYTE      SMB0TC
      000000F2H   SFRSYM    DATA     BYTE      P1MDIN
      000000B2H   SFRSYM    DATA     BYTE      CLU1FN
      000000C8H.4 SFRSYM    DATA     BIT       SCON1_REN
      000000B9H   SFRSYM    DATA     BYTE      SMB1TC
      000000F3H   SFRSYM    DATA     BYTE      P2MDIN
      000000B5H   SFRSYM    DATA     BYTE      CLU2FN
      000000C0H.4 SFRSYM    DATA     BIT       SMB0CN0_STO
      000000F4H   SFRSYM    DATA     BYTE      P3MDIN
      000000BEH   SFRSYM    DATA     BYTE      CLU3FN
      00000088H.4 SFRSYM    DATA     BIT       SMB1CN0_STO
      00000096H   SFRSYM    DATA     BYTE      SBRLH1
      000000FEH   SFRSYM    DATA     BYTE      P0MASK
      000000D8H.5 SFRSYM    DATA     BIT       UART1FCN1_TXHOLD
      000000EEH   SFRSYM    DATA     BYTE      P1MASK
      000000FCH   SFRSYM    DATA     BYTE      P2MASK
      000000D0H.3 SFRSYM    DATA     BIT       PSW_RS0
      000000D8H.7 SFRSYM    DATA     BIT       PCA0CN0_CF
      0000009EH   SFRSYM    DATA     BYTE      PCA0CENT
      000000D2H   SFRSYM    DATA     BYTE      CRC0ST
      000000F8H.4 SFRSYM    DATA     BIT       SPI0CN0_RXOVRN
      000000D0H.4 SFRSYM    DATA     BIT       PSW_RS1
      00000095H   SFRSYM    DATA     BYTE      SBRLL1
      000000C8H.2 SFRSYM    DATA     BIT       SCON1_RBX
      00000091H   SFRSYM    DATA     BYTE      DAC0CF0
      000000C8H.0 SFRSYM    DATA     BIT       TMR2CN0_T2XCLK0
      00000092H   SFRSYM    DATA     BYTE      DAC0CF1
      000000B9H   SFRSYM    DATA     BYTE      ADC0CF1
      000000C8H.1 SFRSYM    DATA     BIT       TMR2CN0_T2XCLK1
      000000C8H.3 SFRSYM    DATA     BIT       SCON1_TBX
      000000E8H.7 SFRSYM    DATA     BIT       ADC0CN0_ADEN
      00000089H   SFRSYM    DATA     BYTE      TMOD
LX51 LINKER/LOCATER V4.66.97.0                                                        02/23/2023  16:00:17  PAGE 69


      00000088H   SFRSYM    DATA     BYTE      TCON
      000000DFH   SFRSYM    DATA     BYTE      ADC0CF2
      000000CFH   SFRSYM    DATA     BYTE      CRC0FLIP
      000000D0H.0 SFRSYM    DATA     BIT       PSW_PARITY
      000000A8H.4 SFRSYM    DATA     BIT       IE_ES0
      0000009FH   SFRSYM    DATA     BYTE      CMP0MX
      00000098H.0 SFRSYM    DATA     BIT       TMR4CN0_T4XCLK0
      000000A8H.1 SFRSYM    DATA     BIT       IE_ET0
      000000AAH   SFRSYM    DATA     BYTE      CMP1MX
      00000098H.1 SFRSYM    DATA     BIT       TMR4CN0_T4XCLK1
      000000A8H.3 SFRSYM    DATA     BIT       IE_ET1
      00000099H   SFRSYM    DATA     WORD      PWMCP0
      000000D4H   SFRSYM    DATA     BYTE      P0SKIP
      000000D1H   SFRSYM    DATA     BYTE      CLOUT0
      000000D8H.0 SFRSYM    DATA     BIT       UART1FCN1_RIE
      000000C0H.0 SFRSYM    DATA     BIT       TMR5CN0_T5XCLK0
      000000A8H.5 SFRSYM    DATA     BIT       IE_ET2
      000000B5H   SFRSYM    DATA     WORD      PWMCP1
      000000D5H   SFRSYM    DATA     BYTE      P1SKIP
      000000C0H.1 SFRSYM    DATA     BIT       TMR5CN0_T5XCLK1
      000000BDH   SFRSYM    DATA     WORD      PWMCP2
      000000CCH   SFRSYM    DATA     BYTE      P2SKIP
      00000084H   SFRSYM    DATA     BYTE      CLU0MX
      000000E8H   SFRSYM    DATA     BYTE      ADC0CN0
      000000D8H.4 SFRSYM    DATA     BIT       UART1FCN1_TIE
      000000A8H.0 SFRSYM    DATA     BIT       IE_EX0
      00000085H   SFRSYM    DATA     BYTE      CLU1MX
      000000B2H   SFRSYM    DATA     BYTE      ADC0CN1
      000000D8H.6 SFRSYM    DATA     BIT       PCA0CN0_CR
      000000A8H.2 SFRSYM    DATA     BIT       IE_EX1
      000000C4H   SFRSYM    DATA     BYTE      PWMH
      00000091H   SFRSYM    DATA     BYTE      CLU2MX
      000000B3H   SFRSYM    DATA     BYTE      ADC0CN2
      000000C8H.7 SFRSYM    DATA     BIT       SCON1_OVR
      000000AAH   SFRSYM    DATA     BYTE      PSTAT0
      000000AEH   SFRSYM    DATA     BYTE      CLU3MX
      00000098H.7 SFRSYM    DATA     BIT       SCON0_SMODE
      000000B5H   SFRSYM    DATA     BYTE      DEVICEID
      000000A9H   SFRSYM    DATA     BYTE      CLKSEL
      000000F8H.0 SFRSYM    DATA     BIT       SPI0CN0_SPIEN
      000000C3H   SFRSYM    DATA     BYTE      PWML
      00000085H   SFRSYM    DATA     BYTE      DAC0H
      000000F0H   SFRSYM    DATA     BYTE      B
      000000BEH   SFRSYM    DATA     BYTE      ADC0H
      000000CAH   SFRSYM    DATA     WORD      TMR2RL
      00000084H   SFRSYM    DATA     BYTE      DAC0L
      000000BDH   SFRSYM    DATA     BYTE      ADC0L
      00000092H   SFRSYM    DATA     WORD      TMR3RL
      000000A2H   SFRSYM    DATA     WORD      TMR4RL
      000000D8H   SFRSYM    DATA     BYTE      PCA0CN0
      000000E0H   SFRSYM    DATA     BYTE      ACC
      000000D2H   SFRSYM    DATA     WORD      TMR5RL
      000000D9H   SFRSYM    DATA     BYTE      UART0PCF
      000000FBH   SFRSYM    DATA     WORD      PCA0CP0
      000000DAH   SFRSYM    DATA     BYTE      UART1PCF
      000000E9H   SFRSYM    DATA     WORD      PCA0CP1
      000000EBH   SFRSYM    DATA     WORD      PCA0CP2
      000000CEH   SFRSYM    DATA     BYTE      CRC0CN0
      0000008CH   SFRSYM    DATA     BYTE      TH0
      00000086H   SFRSYM    DATA     BYTE      CRC0CN1
      000000B8H.4 SFRSYM    DATA     BIT       IP_PS0
      000000FAH   SFRSYM    DATA     BYTE      UART1FCT
LX51 LINKER/LOCATER V4.66.97.0                                                        02/23/2023  16:00:17  PAGE 70


      0000008DH   SFRSYM    DATA     BYTE      TH1
      000000FAH   SFRSYM    DATA     BYTE      PCA0H
      000000B8H.1 SFRSYM    DATA     BIT       IP_PT0
      000000C7H   SFRSYM    DATA     BYTE      CLIE0
      000000B8H.3 SFRSYM    DATA     BIT       IP_PT1
      000000B5H   SFRSYM    DATA     WORD      ADC0ASA
      000000E8H   SFRSYM    DATA     BYTE      CLIF0
      000000C0H.2 SFRSYM    DATA     BIT       SMB0CN0_ARBLOST
      000000B8H.5 SFRSYM    DATA     BIT       IP_PT2
      0000008AH   SFRSYM    DATA     BYTE      TL0
      00000088H.2 SFRSYM    DATA     BIT       SMB1CN0_ARBLOST
      000000D0H.5 SFRSYM    DATA     BIT       PSW_F0
      000000A8H.6 SFRSYM    DATA     BIT       IE_ESPI0
      0000008BH   SFRSYM    DATA     BYTE      TL1
      000000F9H   SFRSYM    DATA     BYTE      PCA0L
      000000C0H.0 SFRSYM    DATA     BIT       SMB0CN0_SI
      000000D0H.1 SFRSYM    DATA     BIT       PSW_F1
      00000080H.0 SFRSYM    DATA     BIT       P0_B0
      000000B8H.0 SFRSYM    DATA     BIT       IP_PX0
      00000088H.0 SFRSYM    DATA     BIT       SMB1CN0_SI
      00000090H.0 SFRSYM    DATA     BIT       P1_B0
      00000080H.1 SFRSYM    DATA     BIT       P0_B1
      000000B8H.2 SFRSYM    DATA     BIT       IP_PX1
      000000ABH   SFRSYM    DATA     WORD      PWMCPUD0
      0000009EH   SFRSYM    DATA     BYTE      UART1LIN
      0000009BH   SFRSYM    DATA     BYTE      CMP0CN0
      000000C6H   SFRSYM    DATA     BYTE      CLEN0
      00000088H.1 SFRSYM    DATA     BIT       TCON_IE0
      000000A0H.0 SFRSYM    DATA     BIT       P2_B0
      00000090H.1 SFRSYM    DATA     BIT       P1_B1
      00000080H.2 SFRSYM    DATA     BIT       P0_B2
      000000B2H   SFRSYM    DATA     WORD      PWMCPUD1
      000000BFH   SFRSYM    DATA     BYTE      CMP1CN0
      00000099H   SFRSYM    DATA     BYTE      CMP0CN1
      00000088H.3 SFRSYM    DATA     BIT       TCON_IE1
      000000B0H.0 SFRSYM    DATA     BIT       P3_B0
      000000A0H.1 SFRSYM    DATA     BIT       P2_B1
      00000090H.2 SFRSYM    DATA     BIT       P1_B2
      00000080H.3 SFRSYM    DATA     BIT       P0_B3
      000000B9H   SFRSYM    DATA     WORD      PWMCPUD2
      000000C0H   SFRSYM    DATA     BYTE      SMB0CN0
      000000A4H   SFRSYM    DATA     BYTE      CP0CN
      000000ACH   SFRSYM    DATA     BYTE      CMP1CN1
      000000B0H.1 SFRSYM    DATA     BIT       P3_B1
      000000A0H.2 SFRSYM    DATA     BIT       P2_B2
      00000090H.3 SFRSYM    DATA     BIT       P1_B3
      00000080H.4 SFRSYM    DATA     BIT       P0_B4
      00000088H   SFRSYM    DATA     BYTE      SMB1CN0
      000000B0H.2 SFRSYM    DATA     BIT       P3_B2
      000000A0H.3 SFRSYM    DATA     BIT       P2_B3
      00000090H.4 SFRSYM    DATA     BIT       P1_B4
      00000080H.5 SFRSYM    DATA     BIT       P0_B5
      000000D8H.1 SFRSYM    DATA     BIT       UART1FCN1_RXTO0
      000000B0H.3 SFRSYM    DATA     BIT       P3_B3
      000000A0H.4 SFRSYM    DATA     BIT       P2_B4
      00000090H.5 SFRSYM    DATA     BIT       P1_B5
      00000080H.6 SFRSYM    DATA     BIT       P0_B6
      000000C5H   SFRSYM    DATA     WORD      PWMLIM
      000000EEH   SFRSYM    DATA     BYTE      EIP1H
      000000D8H.2 SFRSYM    DATA     BIT       UART1FCN1_RXTO1
      000000B0H.4 SFRSYM    DATA     BIT       P3_B4
      000000A0H.5 SFRSYM    DATA     BIT       P2_B5
LX51 LINKER/LOCATER V4.66.97.0                                                        02/23/2023  16:00:17  PAGE 71


      00000090H.6 SFRSYM    DATA     BIT       P1_B6
      00000080H.7 SFRSYM    DATA     BIT       P0_B7
      000000C5H   SFRSYM    DATA     BYTE      SMB0RXLN
      000000F6H   SFRSYM    DATA     BYTE      EIP2H
      000000B0H.5 SFRSYM    DATA     BIT       P3_B5
      000000A0H.6 SFRSYM    DATA     BIT       P2_B6
      00000090H.7 SFRSYM    DATA     BIT       P1_B7
      000000BCH   SFRSYM    DATA     BYTE      SMB1RXLN
      000000B0H.6 SFRSYM    DATA     BIT       P3_B6
      000000A0H.7 SFRSYM    DATA     BIT       P2_B7
      0000008AH   SFRSYM    DATA     BYTE      DAC0ALT
      000000B0H.7 SFRSYM    DATA     BIT       P3_B7
      0000009BH   SFRSYM    DATA     BYTE      PWMSTATUS
      00000083H   SFRSYM    DATA     BYTE      DPH
      000000C4H   SFRSYM    DATA     BYTE      ADC0GTH
      000000C8H.7 SFRSYM    DATA     BIT       TMR2CN0_TF2H
      000000C8H.3 SFRSYM    DATA     BIT       TMR2CN0_T2SPLIT
      000000D0H.6 SFRSYM    DATA     BIT       PSW_AC
      000000F8H   SFRSYM    DATA     BYTE      SPI0CN0
      000000D6H   SFRSYM    DATA     BYTE      HFO0CAL
      00000088H.5 SFRSYM    DATA     BIT       TCON_TF0
      00000098H.0 SFRSYM    DATA     BIT       SCON0_RI
      00000082H   SFRSYM    DATA     BYTE      DPL
      00000088H.7 SFRSYM    DATA     BIT       TCON_TF1
      000000C8H.0 SFRSYM    DATA     BIT       SCON1_RI
      00000099H   SFRSYM    DATA     BYTE      SBUF0
      00000087H   SFRSYM    DATA     BYTE      PCON0
      000000F2H   SFRSYM    DATA     BYTE      IPH
      000000C3H   SFRSYM    DATA     BYTE      ADC0GTL
      00000098H.7 SFRSYM    DATA     BIT       TMR4CN0_TF4H
      00000098H.3 SFRSYM    DATA     BIT       TMR4CN0_T4SPLIT
      000000C8H.6 SFRSYM    DATA     BIT       TMR2CN0_TF2L
      00000098H.1 SFRSYM    DATA     BIT       SCON0_TI
      00000092H   SFRSYM    DATA     BYTE      SBUF1
      000000CDH   SFRSYM    DATA     BYTE      PCON1
      000000C6H   SFRSYM    DATA     BYTE      ADC0LTH
      00000088H.0 SFRSYM    DATA     BIT       TCON_IT0
      000000C8H.1 SFRSYM    DATA     BIT       SCON1_TI
      000000EFH   SFRSYM    DATA     BYTE      RSTSRC
      000000FDH   SFRSYM    DATA     BYTE      P0MAT
      000000CBH   SFRSYM    DATA     BYTE      CRC0DAT
      000000C0H.7 SFRSYM    DATA     BIT       TMR5CN0_TF5H
      000000C0H.3 SFRSYM    DATA     BIT       TMR5CN0_T5SPLIT
      00000088H.2 SFRSYM    DATA     BIT       TCON_IT1
      000000D7H   SFRSYM    DATA     BYTE      SFRSTACK
      00000098H   SFRSYM    DATA     BYTE      SCON0
      000000F6H   SFRSYM    DATA     BYTE      PRTDRV
      000000EDH   SFRSYM    DATA     BYTE      P1MAT
      000000E8H.3 SFRSYM    DATA     BIT       ADC0CN0_ADWINT
      00000093H   SFRSYM    DATA     BYTE      SMOD1
      000000C8H   SFRSYM    DATA     BYTE      SCON1
      000000FBH   SFRSYM    DATA     BYTE      P2MAT
      00000098H.6 SFRSYM    DATA     BIT       TMR4CN0_TF4L
      000000E8H.4 SFRSYM    DATA     BIT       ADC0CN0_ADBUSY
      000000D6H   SFRSYM    DATA     BYTE      SMB0ADM
      000000C5H   SFRSYM    DATA     BYTE      ADC0LTL
      000000F8H.5 SFRSYM    DATA     BIT       SPI0CN0_MODF
      000000B8H.6 SFRSYM    DATA     BIT       IP_PSPI0
      000000E8H.1 SFRSYM    DATA     BIT       ADC0CN0_ADGN0
      000000FFH   SFRSYM    DATA     BYTE      SMB1ADM
      0000009CH   SFRSYM    DATA     BYTE      PCA0CLR
      000000C0H.6 SFRSYM    DATA     BIT       TMR5CN0_TF5L
LX51 LINKER/LOCATER V4.66.97.0                                                        02/23/2023  16:00:17  PAGE 72


      000000E8H.2 SFRSYM    DATA     BIT       ADC0CN0_ADGN1
      000000C8H   SFRSYM    DATA     BYTE      TMR2CN0
      000000E3H   SFRSYM    DATA     BYTE      PWMCKDIV
      00000091H   SFRSYM    DATA     BYTE      TMR3CN0
      000000FDH   SFRSYM    DATA     BYTE      TMR2CN1
      00000098H   SFRSYM    DATA     BYTE      TMR4CN0
      000000FEH   SFRSYM    DATA     BYTE      TMR3CN1
      000000C0H   SFRSYM    DATA     BYTE      TMR5CN0
      000000FFH   SFRSYM    DATA     BYTE      TMR4CN1
      000000D7H   SFRSYM    DATA     BYTE      SMB0ADR
      00000088H.4 SFRSYM    DATA     BIT       TCON_TR0
      000000F1H   SFRSYM    DATA     BYTE      TMR5CN1
      000000BDH   SFRSYM    DATA     BYTE      SMB1ADR
      000000C8H.4 SFRSYM    DATA     BIT       TMR2CN0_TF2CEN
      00000088H.6 SFRSYM    DATA     BIT       TCON_TR1
      000000C2H   SFRSYM    DATA     BYTE      SMB0DAT
      000000CFH   SFRSYM    DATA     BYTE      TMR2H
      000000A1H   SFRSYM    DATA     BYTE      SPI0CFG
      000000BBH   SFRSYM    DATA     BYTE      SMB1DAT
      00000095H   SFRSYM    DATA     BYTE      TMR3H
      000000D3H   SFRSYM    DATA     BYTE      CRC0CNT
      000000A5H   SFRSYM    DATA     BYTE      TMR4H
      00000098H.4 SFRSYM    DATA     BIT       TMR4CN0_TF4CEN
      000000D5H   SFRSYM    DATA     BYTE      TMR5H
      000000EFH   SFRSYM    DATA     BYTE      SMB0FCT
      00000096H   SFRSYM    DATA     BYTE      PCA0POL
      000000CEH   SFRSYM    DATA     BYTE      TMR2L
      000000F5H   SFRSYM    DATA     BYTE      SMB1FCT
      000000C0H.4 SFRSYM    DATA     BIT       TMR5CN0_TF5CEN
      000000F8H.7 SFRSYM    DATA     BIT       SPI0CN0_SPIF
      00000094H   SFRSYM    DATA     BYTE      TMR3L
      000000A8H.7 SFRSYM    DATA     BIT       IE_EA
      000000C3H   SFRSYM    DATA     WORD      PWM
      000000A4H   SFRSYM    DATA     BYTE      TMR4L
      000000D4H   SFRSYM    DATA     BYTE      TMR5L
      000000AFH   SFRSYM    DATA     BYTE      CLKGRP0
      000000C8H.5 SFRSYM    DATA     BIT       TMR2CN0_TF2LEN
      000000F8H.6 SFRSYM    DATA     BIT       SPI0CN0_WCOL
      000000C2H   SFRSYM    DATA     BYTE      PWMCFG0
      000000F8H.2 SFRSYM    DATA     BIT       SPI0CN0_NSSMD0
      000000D0H.7 SFRSYM    DATA     BIT       PSW_CY
      0000009DH   SFRSYM    DATA     BYTE      UART1FCN0
      000000DFH   SFRSYM    DATA     BYTE      SPI0PCF
      000000A3H   SFRSYM    DATA     BYTE      SPI0DAT
      000000C9H   SFRSYM    DATA     BYTE      PWMCFG1
      000000F8H.3 SFRSYM    DATA     BIT       SPI0CN0_NSSMD1
      000000BDH   SFRSYM    DATA     WORD      ADC0
      000000D8H   SFRSYM    DATA     BYTE      UART1FCN1
      000000D1H   SFRSYM    DATA     BYTE      PWMCFG2
      000000E8H.0 SFRSYM    DATA     BIT       CLIF0_C0FIF
      000000DFH   SFRSYM    DATA     BYTE      PWMCFG3
      00000098H.5 SFRSYM    DATA     BIT       TMR4CN0_TF4LEN
      000000E8H.2 SFRSYM    DATA     BIT       CLIF0_C1FIF
      000000D0H   SFRSYM    DATA     BYTE      PSW
      000000F7H   SFRSYM    DATA     BYTE      PCA0PWM
      000000E8H.4 SFRSYM    DATA     BIT       CLIF0_C2FIF
      000000F7H   SFRSYM    DATA     BYTE      SPI0FCT
      000000B6H   SFRSYM    DATA     BYTE      REVID
      000000C0H.5 SFRSYM    DATA     BIT       TMR5CN0_TF5LEN
      000000E8H.6 SFRSYM    DATA     BIT       CLIF0_C3FIF
      000000CCH   SFRSYM    DATA     BYTE      HFO0TRIM0
      000000B7H   SFRSYM    DATA     BYTE      FLKEY
LX51 LINKER/LOCATER V4.66.97.0                                                        02/23/2023  16:00:17  PAGE 73



      01000020H   BLOCK     CODE     ---       LVL=0
      01000020H   LINE      CODE     ---       #24
      ---         BLOCKEND  ---      ---       LVL=0

      0100035BH   BLOCK     CODE     ---       LVL=0
      00000022H   SYMBOL    DATA     BYTE      event
      0100035DH   BLOCK     CODE     NEAR LAB  LVL=1
      00000023H   SYMBOL    DATA     INT       i
      ---         BLOCKEND  ---      ---       LVL=1
      0100035BH   LINE      CODE     ---       #36
      0100035DH   LINE      CODE     ---       #39
      01000362H   LINE      CODE     ---       #41
      01000371H   LINE      CODE     ---       #42
      01000382H   LINE      CODE     ---       #45
      0100038FH   LINE      CODE     ---       #48
      010003A0H   LINE      CODE     ---       #51
      010003A0H   LINE      CODE     ---       #52
      010003A0H   LINE      CODE     ---       #53
      010003A0H   LINE      CODE     ---       #54
      010003B3H   LINE      CODE     ---       #55
      ---         BLOCKEND  ---      ---       LVL=0

      01000811H   BLOCK     CODE     ---       LVL=0
      01000811H   BLOCK     CODE     NEAR LAB  LVL=1
      00000007H   SYMBOL    DATA     BYTE      event
      ---         BLOCKEND  ---      ---       LVL=1
      01000811H   LINE      CODE     ---       #59
      01000811H   LINE      CODE     ---       #60
      01000813H   LINE      CODE     ---       #61
      01000816H   LINE      CODE     ---       #62
      01000816H   LINE      CODE     ---       #63
      ---         BLOCKEND  ---      ---       LVL=0

      ---         MODULE    ---      ---       TIMER_4
      0100040CH   PUBLIC    CODE     ---       _timer_4_delay_ms
      000000A2H   SFRSYM    DATA     BYTE      SPI0CKR
      00000080H   SFRSYM    DATA     BYTE      P0
      000000C8H.6 SFRSYM    DATA     BIT       SCON1_PERR
      000000D0H.2 SFRSYM    DATA     BIT       PSW_OV
      00000090H   SFRSYM    DATA     BYTE      P1
      000000F8H.1 SFRSYM    DATA     BIT       SPI0CN0_TXNF
      00000097H   SFRSYM    DATA     BYTE      WDTCN
      0000009AH   SFRSYM    DATA     BYTE      PWMCPH0
      000000A0H   SFRSYM    DATA     BYTE      P2
      000000B6H   SFRSYM    DATA     BYTE      PWMCPH1
      000000B0H   SFRSYM    DATA     BYTE      P3
      0000009FH   SFRSYM    DATA     BYTE      PWMIE
      000000BEH   SFRSYM    DATA     BYTE      PWMCPH2
      000000C0H.7 SFRSYM    DATA     BIT       SMB0CN0_MASTER
      000000F9H   SFRSYM    DATA     WORD      PCA0
      0000009DH   SFRSYM    DATA     BYTE      PWMIF
      000000E6H   SFRSYM    DATA     BYTE      EIE1
      00000088H.7 SFRSYM    DATA     BIT       SMB1CN0_MASTER
      000000C0H.1 SFRSYM    DATA     BIT       SMB0CN0_ACK
      000000E8H.1 SFRSYM    DATA     BIT       CLIF0_C0RIF
      00000099H   SFRSYM    DATA     BYTE      PWMCPL0
      000000F3H   SFRSYM    DATA     BYTE      EIE2
      00000088H.1 SFRSYM    DATA     BIT       SMB1CN0_ACK
      000000E8H.3 SFRSYM    DATA     BIT       CLIF0_C1RIF
      000000B5H   SFRSYM    DATA     BYTE      PWMCPL1
      000000E8H.5 SFRSYM    DATA     BIT       CLIF0_C2RIF
LX51 LINKER/LOCATER V4.66.97.0                                                        02/23/2023  16:00:17  PAGE 74


      000000BDH   SFRSYM    DATA     BYTE      PWMCPL2
      0000008FH   SFRSYM    DATA     BYTE      PSCTL
      000000E8H.7 SFRSYM    DATA     BIT       CLIF0_C3RIF
      000000E4H   SFRSYM    DATA     BYTE      IT01CF
      000000C0H.6 SFRSYM    DATA     BIT       SMB0CN0_TXMODE
      000000E2H   SFRSYM    DATA     BYTE      PWMDTINLIM
      000000ADH   SFRSYM    DATA     BYTE      DERIVID
      00000088H.6 SFRSYM    DATA     BIT       SMB1CN0_TXMODE
      000000A7H   SFRSYM    DATA     BYTE      SFRPAGE
      000000E1H   SFRSYM    DATA     BYTE      PWMDTIPLIM
      000000A4H   SFRSYM    DATA     BYTE      P0MDOUT
      000000A5H   SFRSYM    DATA     BYTE      P1MDOUT
      000000E8H.5 SFRSYM    DATA     BIT       ADC0CN0_ADINT
      000000CBH   SFRSYM    DATA     BYTE      TMR2RLH
      000000A6H   SFRSYM    DATA     BYTE      P2MDOUT
      000000A8H   SFRSYM    DATA     BYTE      IE
      00000093H   SFRSYM    DATA     BYTE      TMR3RLH
      0000009CH   SFRSYM    DATA     BYTE      P3MDOUT
      000000A3H   SFRSYM    DATA     BYTE      TMR4RLH
      000000BBH   SFRSYM    DATA     BYTE      EIP1
      000000D3H   SFRSYM    DATA     BYTE      TMR5RLH
      000000EDH   SFRSYM    DATA     BYTE      EIP2
      00000098H.2 SFRSYM    DATA     BIT       SCON0_RB8
      000000CAH   SFRSYM    DATA     BYTE      TMR2RLL
      000000FCH   SFRSYM    DATA     BYTE      PCA0CPH0
      00000092H   SFRSYM    DATA     BYTE      TMR3RLL
      000000EAH   SFRSYM    DATA     BYTE      PCA0CPH1
      00000098H.3 SFRSYM    DATA     BIT       SCON0_TB8
      000000F0H.0 SFRSYM    DATA     BIT       B_B0
      00000082H   SFRSYM    DATA     WORD      DP
      000000A2H   SFRSYM    DATA     BYTE      TMR4RLL
      000000ECH   SFRSYM    DATA     BYTE      PCA0CPH2
      000000F0H.1 SFRSYM    DATA     BIT       B_B1
      000000C3H   SFRSYM    DATA     WORD      ADC0GT
      000000D2H   SFRSYM    DATA     BYTE      TMR5RLL
      000000D8H.3 SFRSYM    DATA     BIT       UART1FCN1_RFRQ
      000000F0H.2 SFRSYM    DATA     BIT       B_B2
      000000BCH   SFRSYM    DATA     BYTE      SFRPGCN
      000000FBH   SFRSYM    DATA     BYTE      PCA0CPL0
      000000F0H.3 SFRSYM    DATA     BIT       B_B3
      000000D9H   SFRSYM    DATA     BYTE      PCA0MD
      000000DAH   SFRSYM    DATA     BYTE      PCA0CPM0
      000000E9H   SFRSYM    DATA     BYTE      PCA0CPL1
      000000D8H.7 SFRSYM    DATA     BIT       UART1FCN1_TFRQ
      000000F0H.4 SFRSYM    DATA     BIT       B_B4
      000000DBH   SFRSYM    DATA     BYTE      PCA0CPM1
      000000EBH   SFRSYM    DATA     BYTE      PCA0CPL2
      000000A1H   SFRSYM    DATA     BYTE      ADC0ASCF
      000000B6H   SFRSYM    DATA     BYTE      ADC0ASAH
      000000F0H.5 SFRSYM    DATA     BIT       B_B5
      000000E8H.6 SFRSYM    DATA     BIT       ADC0CN0_IPOEN
      000000E8H.0 SFRSYM    DATA     BIT       ADC0CN0_TEMPE
      000000DCH   SFRSYM    DATA     BYTE      PCA0CPM2
      000000B8H   SFRSYM    DATA     BYTE      IP
      000000F0H.6 SFRSYM    DATA     BIT       B_B6
      000000C5H   SFRSYM    DATA     WORD      ADC0LT
      000000D8H.6 SFRSYM    DATA     BIT       UART1FCN1_TXNF
      00000098H.5 SFRSYM    DATA     BIT       SCON0_MCE
      000000F0H.7 SFRSYM    DATA     BIT       B_B7
      000000C3H   SFRSYM    DATA     BYTE      SMB0FCN0
      000000ACH   SFRSYM    DATA     BYTE      PWMCPUDH0
      000000B5H   SFRSYM    DATA     BYTE      ADC0ASAL
LX51 LINKER/LOCATER V4.66.97.0                                                        02/23/2023  16:00:17  PAGE 75


      000000E1H   SFRSYM    DATA     BYTE      XBR0
      000000ADH   SFRSYM    DATA     BYTE      SMB1FCN0
      000000C4H   SFRSYM    DATA     BYTE      SMB0FCN1
      000000C1H   SFRSYM    DATA     BYTE      SMB0CF
      000000B3H   SFRSYM    DATA     BYTE      PWMCPUDH1
      000000E2H   SFRSYM    DATA     BYTE      XBR1
      000000ABH   SFRSYM    DATA     BYTE      SMB1FCN1
      000000BAH   SFRSYM    DATA     BYTE      SMB1CF
      000000BAH   SFRSYM    DATA     BYTE      PWMCPUDH2
      000000C1H   SFRSYM    DATA     BYTE      PFE0CN
      000000E7H   SFRSYM    DATA     BYTE      EMI0CN
      000000C0H.5 SFRSYM    DATA     BIT       SMB0CN0_STA
      000000E3H   SFRSYM    DATA     BYTE      XBR2
      000000B1H   SFRSYM    DATA     BYTE      CLU0CF
      000000BBH   SFRSYM    DATA     BYTE      ADC0MX
      00000088H.5 SFRSYM    DATA     BIT       SMB1CN0_STA
      000000E0H.0 SFRSYM    DATA     BIT       ACC_ACC0
      000000D1H   SFRSYM    DATA     BYTE      REF0CN
      000000ABH   SFRSYM    DATA     BYTE      PWMCPUDL0
      000000EFH   SFRSYM    DATA     BYTE      HFO0CN
      000000B3H   SFRSYM    DATA     BYTE      CLU1CF
      0000008EH   SFRSYM    DATA     BYTE      CKCON0
      000000E0H.1 SFRSYM    DATA     BIT       ACC_ACC1
      000000C9H   SFRSYM    DATA     BYTE      REG0CN
      000000C6H   SFRSYM    DATA     BYTE      PWMLIMH
      000000B2H   SFRSYM    DATA     BYTE      PWMCPUDL1
      000000CAH   SFRSYM    DATA     BYTE      CRC0IN
      000000B6H   SFRSYM    DATA     BYTE      CLU2CF
      000000A6H   SFRSYM    DATA     BYTE      CKCON1
      000000C8H.2 SFRSYM    DATA     BIT       TMR2CN0_TR2
      000000E0H.2 SFRSYM    DATA     BIT       ACC_ACC2
      000000B9H   SFRSYM    DATA     BYTE      PWMCPUDL2
      000000BFH   SFRSYM    DATA     BYTE      CLU3CF
      000000E0H.3 SFRSYM    DATA     BIT       ACC_ACC3
      00000081H   SFRSYM    DATA     BYTE      SP
      0000009DH   SFRSYM    DATA     BYTE      CMP0MD
      000000E0H.4 SFRSYM    DATA     BIT       ACC_ACC4
      000000B1H   SFRSYM    DATA     BYTE      LFO0CN
      000000ABH   SFRSYM    DATA     BYTE      CMP1MD
      000000D8H.0 SFRSYM    DATA     BIT       PCA0CN0_CCF0
      000000E0H.5 SFRSYM    DATA     BIT       ACC_ACC5
      000000C5H   SFRSYM    DATA     BYTE      PWMLIML
      00000098H.2 SFRSYM    DATA     BIT       TMR4CN0_TR4
      000000D8H.1 SFRSYM    DATA     BIT       PCA0CN0_CCF1
      000000E0H.6 SFRSYM    DATA     BIT       ACC_ACC6
      000000CEH   SFRSYM    DATA     WORD      TMR2
      0000009AH   SFRSYM    DATA     BYTE      SPI0FCN0
      000000C7H   SFRSYM    DATA     BYTE      ADC0ASCT
      000000D8H.2 SFRSYM    DATA     BIT       PCA0CN0_CCF2
      000000E0H.7 SFRSYM    DATA     BIT       ACC_ACC7
      00000094H   SFRSYM    DATA     WORD      TMR3
      0000009BH   SFRSYM    DATA     BYTE      SPI0FCN1
      000000C0H.2 SFRSYM    DATA     BIT       TMR5CN0_TR5
      000000A4H   SFRSYM    DATA     WORD      TMR4
      00000094H   SFRSYM    DATA     BYTE      SBCON1
      000000D4H   SFRSYM    DATA     WORD      TMR5
      000000C0H.3 SFRSYM    DATA     BIT       SMB0CN0_ACKRQ
      000000F1H   SFRSYM    DATA     BYTE      P0MDIN
      000000AFH   SFRSYM    DATA     BYTE      CLU0FN
      00000088H.3 SFRSYM    DATA     BIT       SMB1CN0_ACKRQ
      00000098H.4 SFRSYM    DATA     BIT       SCON0_REN
      000000ACH   SFRSYM    DATA     BYTE      SMB0TC
LX51 LINKER/LOCATER V4.66.97.0                                                        02/23/2023  16:00:17  PAGE 76


      000000F2H   SFRSYM    DATA     BYTE      P1MDIN
      000000B2H   SFRSYM    DATA     BYTE      CLU1FN
      000000C8H.4 SFRSYM    DATA     BIT       SCON1_REN
      000000B9H   SFRSYM    DATA     BYTE      SMB1TC
      000000F3H   SFRSYM    DATA     BYTE      P2MDIN
      000000B5H   SFRSYM    DATA     BYTE      CLU2FN
      000000C0H.4 SFRSYM    DATA     BIT       SMB0CN0_STO
      000000F4H   SFRSYM    DATA     BYTE      P3MDIN
      000000BEH   SFRSYM    DATA     BYTE      CLU3FN
      00000088H.4 SFRSYM    DATA     BIT       SMB1CN0_STO
      00000096H   SFRSYM    DATA     BYTE      SBRLH1
      000000FEH   SFRSYM    DATA     BYTE      P0MASK
      000000D8H.5 SFRSYM    DATA     BIT       UART1FCN1_TXHOLD
      000000EEH   SFRSYM    DATA     BYTE      P1MASK
      000000FCH   SFRSYM    DATA     BYTE      P2MASK
      000000D0H.3 SFRSYM    DATA     BIT       PSW_RS0
      000000D8H.7 SFRSYM    DATA     BIT       PCA0CN0_CF
      0000009EH   SFRSYM    DATA     BYTE      PCA0CENT
      000000D2H   SFRSYM    DATA     BYTE      CRC0ST
      000000F8H.4 SFRSYM    DATA     BIT       SPI0CN0_RXOVRN
      000000D0H.4 SFRSYM    DATA     BIT       PSW_RS1
      00000095H   SFRSYM    DATA     BYTE      SBRLL1
      000000C8H.2 SFRSYM    DATA     BIT       SCON1_RBX
      00000091H   SFRSYM    DATA     BYTE      DAC0CF0
      000000C8H.0 SFRSYM    DATA     BIT       TMR2CN0_T2XCLK0
      00000092H   SFRSYM    DATA     BYTE      DAC0CF1
      000000B9H   SFRSYM    DATA     BYTE      ADC0CF1
      000000C8H.1 SFRSYM    DATA     BIT       TMR2CN0_T2XCLK1
      000000C8H.3 SFRSYM    DATA     BIT       SCON1_TBX
      000000E8H.7 SFRSYM    DATA     BIT       ADC0CN0_ADEN
      00000089H   SFRSYM    DATA     BYTE      TMOD
      00000088H   SFRSYM    DATA     BYTE      TCON
      000000DFH   SFRSYM    DATA     BYTE      ADC0CF2
      000000CFH   SFRSYM    DATA     BYTE      CRC0FLIP
      000000D0H.0 SFRSYM    DATA     BIT       PSW_PARITY
      000000A8H.4 SFRSYM    DATA     BIT       IE_ES0
      0000009FH   SFRSYM    DATA     BYTE      CMP0MX
      00000098H.0 SFRSYM    DATA     BIT       TMR4CN0_T4XCLK0
      000000A8H.1 SFRSYM    DATA     BIT       IE_ET0
      000000AAH   SFRSYM    DATA     BYTE      CMP1MX
      00000098H.1 SFRSYM    DATA     BIT       TMR4CN0_T4XCLK1
      000000A8H.3 SFRSYM    DATA     BIT       IE_ET1
      00000099H   SFRSYM    DATA     WORD      PWMCP0
      000000D4H   SFRSYM    DATA     BYTE      P0SKIP
      000000D1H   SFRSYM    DATA     BYTE      CLOUT0
      000000D8H.0 SFRSYM    DATA     BIT       UART1FCN1_RIE
      000000C0H.0 SFRSYM    DATA     BIT       TMR5CN0_T5XCLK0
      000000A8H.5 SFRSYM    DATA     BIT       IE_ET2
      000000B5H   SFRSYM    DATA     WORD      PWMCP1
      000000D5H   SFRSYM    DATA     BYTE      P1SKIP
      000000C0H.1 SFRSYM    DATA     BIT       TMR5CN0_T5XCLK1
      000000BDH   SFRSYM    DATA     WORD      PWMCP2
      000000CCH   SFRSYM    DATA     BYTE      P2SKIP
      00000084H   SFRSYM    DATA     BYTE      CLU0MX
      000000E8H   SFRSYM    DATA     BYTE      ADC0CN0
      000000D8H.4 SFRSYM    DATA     BIT       UART1FCN1_TIE
      000000A8H.0 SFRSYM    DATA     BIT       IE_EX0
      00000085H   SFRSYM    DATA     BYTE      CLU1MX
      000000B2H   SFRSYM    DATA     BYTE      ADC0CN1
      000000D8H.6 SFRSYM    DATA     BIT       PCA0CN0_CR
      000000A8H.2 SFRSYM    DATA     BIT       IE_EX1
      000000C4H   SFRSYM    DATA     BYTE      PWMH
LX51 LINKER/LOCATER V4.66.97.0                                                        02/23/2023  16:00:17  PAGE 77


      00000091H   SFRSYM    DATA     BYTE      CLU2MX
      000000B3H   SFRSYM    DATA     BYTE      ADC0CN2
      000000C8H.7 SFRSYM    DATA     BIT       SCON1_OVR
      000000AAH   SFRSYM    DATA     BYTE      PSTAT0
      000000AEH   SFRSYM    DATA     BYTE      CLU3MX
      00000098H.7 SFRSYM    DATA     BIT       SCON0_SMODE
      000000B5H   SFRSYM    DATA     BYTE      DEVICEID
      000000A9H   SFRSYM    DATA     BYTE      CLKSEL
      000000F8H.0 SFRSYM    DATA     BIT       SPI0CN0_SPIEN
      000000C3H   SFRSYM    DATA     BYTE      PWML
      00000085H   SFRSYM    DATA     BYTE      DAC0H
      000000F0H   SFRSYM    DATA     BYTE      B
      000000BEH   SFRSYM    DATA     BYTE      ADC0H
      000000CAH   SFRSYM    DATA     WORD      TMR2RL
      00000084H   SFRSYM    DATA     BYTE      DAC0L
      000000BDH   SFRSYM    DATA     BYTE      ADC0L
      00000092H   SFRSYM    DATA     WORD      TMR3RL
      000000A2H   SFRSYM    DATA     WORD      TMR4RL
      000000D8H   SFRSYM    DATA     BYTE      PCA0CN0
      000000E0H   SFRSYM    DATA     BYTE      ACC
      000000D2H   SFRSYM    DATA     WORD      TMR5RL
      000000D9H   SFRSYM    DATA     BYTE      UART0PCF
      000000FBH   SFRSYM    DATA     WORD      PCA0CP0
      000000DAH   SFRSYM    DATA     BYTE      UART1PCF
      000000E9H   SFRSYM    DATA     WORD      PCA0CP1
      000000EBH   SFRSYM    DATA     WORD      PCA0CP2
      000000CEH   SFRSYM    DATA     BYTE      CRC0CN0
      0000008CH   SFRSYM    DATA     BYTE      TH0
      00000086H   SFRSYM    DATA     BYTE      CRC0CN1
      000000B8H.4 SFRSYM    DATA     BIT       IP_PS0
      000000FAH   SFRSYM    DATA     BYTE      UART1FCT
      0000008DH   SFRSYM    DATA     BYTE      TH1
      000000FAH   SFRSYM    DATA     BYTE      PCA0H
      000000B8H.1 SFRSYM    DATA     BIT       IP_PT0
      000000C7H   SFRSYM    DATA     BYTE      CLIE0
      000000B8H.3 SFRSYM    DATA     BIT       IP_PT1
      000000B5H   SFRSYM    DATA     WORD      ADC0ASA
      000000E8H   SFRSYM    DATA     BYTE      CLIF0
      000000C0H.2 SFRSYM    DATA     BIT       SMB0CN0_ARBLOST
      000000B8H.5 SFRSYM    DATA     BIT       IP_PT2
      0000008AH   SFRSYM    DATA     BYTE      TL0
      00000088H.2 SFRSYM    DATA     BIT       SMB1CN0_ARBLOST
      000000D0H.5 SFRSYM    DATA     BIT       PSW_F0
      000000A8H.6 SFRSYM    DATA     BIT       IE_ESPI0
      0000008BH   SFRSYM    DATA     BYTE      TL1
      000000F9H   SFRSYM    DATA     BYTE      PCA0L
      000000C0H.0 SFRSYM    DATA     BIT       SMB0CN0_SI
      000000D0H.1 SFRSYM    DATA     BIT       PSW_F1
      00000080H.0 SFRSYM    DATA     BIT       P0_B0
      000000B8H.0 SFRSYM    DATA     BIT       IP_PX0
      00000088H.0 SFRSYM    DATA     BIT       SMB1CN0_SI
      00000090H.0 SFRSYM    DATA     BIT       P1_B0
      00000080H.1 SFRSYM    DATA     BIT       P0_B1
      000000B8H.2 SFRSYM    DATA     BIT       IP_PX1
      000000ABH   SFRSYM    DATA     WORD      PWMCPUD0
      0000009EH   SFRSYM    DATA     BYTE      UART1LIN
      0000009BH   SFRSYM    DATA     BYTE      CMP0CN0
      000000C6H   SFRSYM    DATA     BYTE      CLEN0
      00000088H.1 SFRSYM    DATA     BIT       TCON_IE0
      000000A0H.0 SFRSYM    DATA     BIT       P2_B0
      00000090H.1 SFRSYM    DATA     BIT       P1_B1
      00000080H.2 SFRSYM    DATA     BIT       P0_B2
LX51 LINKER/LOCATER V4.66.97.0                                                        02/23/2023  16:00:17  PAGE 78


      000000B2H   SFRSYM    DATA     WORD      PWMCPUD1
      000000BFH   SFRSYM    DATA     BYTE      CMP1CN0
      00000099H   SFRSYM    DATA     BYTE      CMP0CN1
      00000088H.3 SFRSYM    DATA     BIT       TCON_IE1
      000000B0H.0 SFRSYM    DATA     BIT       P3_B0
      000000A0H.1 SFRSYM    DATA     BIT       P2_B1
      00000090H.2 SFRSYM    DATA     BIT       P1_B2
      00000080H.3 SFRSYM    DATA     BIT       P0_B3
      000000B9H   SFRSYM    DATA     WORD      PWMCPUD2
      000000C0H   SFRSYM    DATA     BYTE      SMB0CN0
      000000A4H   SFRSYM    DATA     BYTE      CP0CN
      000000ACH   SFRSYM    DATA     BYTE      CMP1CN1
      000000B0H.1 SFRSYM    DATA     BIT       P3_B1
      000000A0H.2 SFRSYM    DATA     BIT       P2_B2
      00000090H.3 SFRSYM    DATA     BIT       P1_B3
      00000080H.4 SFRSYM    DATA     BIT       P0_B4
      00000088H   SFRSYM    DATA     BYTE      SMB1CN0
      000000B0H.2 SFRSYM    DATA     BIT       P3_B2
      000000A0H.3 SFRSYM    DATA     BIT       P2_B3
      00000090H.4 SFRSYM    DATA     BIT       P1_B4
      00000080H.5 SFRSYM    DATA     BIT       P0_B5
      000000D8H.1 SFRSYM    DATA     BIT       UART1FCN1_RXTO0
      000000B0H.3 SFRSYM    DATA     BIT       P3_B3
      000000A0H.4 SFRSYM    DATA     BIT       P2_B4
      00000090H.5 SFRSYM    DATA     BIT       P1_B5
      00000080H.6 SFRSYM    DATA     BIT       P0_B6
      000000C5H   SFRSYM    DATA     WORD      PWMLIM
      000000EEH   SFRSYM    DATA     BYTE      EIP1H
      000000D8H.2 SFRSYM    DATA     BIT       UART1FCN1_RXTO1
      000000B0H.4 SFRSYM    DATA     BIT       P3_B4
      000000A0H.5 SFRSYM    DATA     BIT       P2_B5
      00000090H.6 SFRSYM    DATA     BIT       P1_B6
      00000080H.7 SFRSYM    DATA     BIT       P0_B7
      000000C5H   SFRSYM    DATA     BYTE      SMB0RXLN
      000000F6H   SFRSYM    DATA     BYTE      EIP2H
      000000B0H.5 SFRSYM    DATA     BIT       P3_B5
      000000A0H.6 SFRSYM    DATA     BIT       P2_B6
      00000090H.7 SFRSYM    DATA     BIT       P1_B7
      000000BCH   SFRSYM    DATA     BYTE      SMB1RXLN
      000000B0H.6 SFRSYM    DATA     BIT       P3_B6
      000000A0H.7 SFRSYM    DATA     BIT       P2_B7
      0000008AH   SFRSYM    DATA     BYTE      DAC0ALT
      000000B0H.7 SFRSYM    DATA     BIT       P3_B7
      0000009BH   SFRSYM    DATA     BYTE      PWMSTATUS
      00000083H   SFRSYM    DATA     BYTE      DPH
      000000C4H   SFRSYM    DATA     BYTE      ADC0GTH
      000000C8H.7 SFRSYM    DATA     BIT       TMR2CN0_TF2H
      000000C8H.3 SFRSYM    DATA     BIT       TMR2CN0_T2SPLIT
      000000D0H.6 SFRSYM    DATA     BIT       PSW_AC
      000000F8H   SFRSYM    DATA     BYTE      SPI0CN0
      000000D6H   SFRSYM    DATA     BYTE      HFO0CAL
      00000088H.5 SFRSYM    DATA     BIT       TCON_TF0
      00000098H.0 SFRSYM    DATA     BIT       SCON0_RI
      00000082H   SFRSYM    DATA     BYTE      DPL
      00000088H.7 SFRSYM    DATA     BIT       TCON_TF1
      000000C8H.0 SFRSYM    DATA     BIT       SCON1_RI
      00000099H   SFRSYM    DATA     BYTE      SBUF0
      00000087H   SFRSYM    DATA     BYTE      PCON0
      000000F2H   SFRSYM    DATA     BYTE      IPH
      000000C3H   SFRSYM    DATA     BYTE      ADC0GTL
      00000098H.7 SFRSYM    DATA     BIT       TMR4CN0_TF4H
      00000098H.3 SFRSYM    DATA     BIT       TMR4CN0_T4SPLIT
LX51 LINKER/LOCATER V4.66.97.0                                                        02/23/2023  16:00:17  PAGE 79


      000000C8H.6 SFRSYM    DATA     BIT       TMR2CN0_TF2L
      00000098H.1 SFRSYM    DATA     BIT       SCON0_TI
      00000092H   SFRSYM    DATA     BYTE      SBUF1
      000000CDH   SFRSYM    DATA     BYTE      PCON1
      000000C6H   SFRSYM    DATA     BYTE      ADC0LTH
      00000088H.0 SFRSYM    DATA     BIT       TCON_IT0
      000000C8H.1 SFRSYM    DATA     BIT       SCON1_TI
      000000EFH   SFRSYM    DATA     BYTE      RSTSRC
      000000FDH   SFRSYM    DATA     BYTE      P0MAT
      000000CBH   SFRSYM    DATA     BYTE      CRC0DAT
      000000C0H.7 SFRSYM    DATA     BIT       TMR5CN0_TF5H
      000000C0H.3 SFRSYM    DATA     BIT       TMR5CN0_T5SPLIT
      00000088H.2 SFRSYM    DATA     BIT       TCON_IT1
      000000D7H   SFRSYM    DATA     BYTE      SFRSTACK
      00000098H   SFRSYM    DATA     BYTE      SCON0
      000000F6H   SFRSYM    DATA     BYTE      PRTDRV
      000000EDH   SFRSYM    DATA     BYTE      P1MAT
      000000E8H.3 SFRSYM    DATA     BIT       ADC0CN0_ADWINT
      00000093H   SFRSYM    DATA     BYTE      SMOD1
      000000C8H   SFRSYM    DATA     BYTE      SCON1
      000000FBH   SFRSYM    DATA     BYTE      P2MAT
      00000098H.6 SFRSYM    DATA     BIT       TMR4CN0_TF4L
      000000E8H.4 SFRSYM    DATA     BIT       ADC0CN0_ADBUSY
      000000D6H   SFRSYM    DATA     BYTE      SMB0ADM
      000000C5H   SFRSYM    DATA     BYTE      ADC0LTL
      000000F8H.5 SFRSYM    DATA     BIT       SPI0CN0_MODF
      000000B8H.6 SFRSYM    DATA     BIT       IP_PSPI0
      000000E8H.1 SFRSYM    DATA     BIT       ADC0CN0_ADGN0
      000000FFH   SFRSYM    DATA     BYTE      SMB1ADM
      0000009CH   SFRSYM    DATA     BYTE      PCA0CLR
      000000C0H.6 SFRSYM    DATA     BIT       TMR5CN0_TF5L
      000000E8H.2 SFRSYM    DATA     BIT       ADC0CN0_ADGN1
      000000C8H   SFRSYM    DATA     BYTE      TMR2CN0
      000000E3H   SFRSYM    DATA     BYTE      PWMCKDIV
      00000091H   SFRSYM    DATA     BYTE      TMR3CN0
      000000FDH   SFRSYM    DATA     BYTE      TMR2CN1
      00000098H   SFRSYM    DATA     BYTE      TMR4CN0
      000000FEH   SFRSYM    DATA     BYTE      TMR3CN1
      000000C0H   SFRSYM    DATA     BYTE      TMR5CN0
      000000FFH   SFRSYM    DATA     BYTE      TMR4CN1
      000000D7H   SFRSYM    DATA     BYTE      SMB0ADR
      00000088H.4 SFRSYM    DATA     BIT       TCON_TR0
      000000F1H   SFRSYM    DATA     BYTE      TMR5CN1
      000000BDH   SFRSYM    DATA     BYTE      SMB1ADR
      000000C8H.4 SFRSYM    DATA     BIT       TMR2CN0_TF2CEN
      00000088H.6 SFRSYM    DATA     BIT       TCON_TR1
      000000C2H   SFRSYM    DATA     BYTE      SMB0DAT
      000000CFH   SFRSYM    DATA     BYTE      TMR2H
      000000A1H   SFRSYM    DATA     BYTE      SPI0CFG
      000000BBH   SFRSYM    DATA     BYTE      SMB1DAT
      00000095H   SFRSYM    DATA     BYTE      TMR3H
      000000D3H   SFRSYM    DATA     BYTE      CRC0CNT
      000000A5H   SFRSYM    DATA     BYTE      TMR4H
      00000098H.4 SFRSYM    DATA     BIT       TMR4CN0_TF4CEN
      000000D5H   SFRSYM    DATA     BYTE      TMR5H
      000000EFH   SFRSYM    DATA     BYTE      SMB0FCT
      00000096H   SFRSYM    DATA     BYTE      PCA0POL
      000000CEH   SFRSYM    DATA     BYTE      TMR2L
      000000F5H   SFRSYM    DATA     BYTE      SMB1FCT
      000000C0H.4 SFRSYM    DATA     BIT       TMR5CN0_TF5CEN
      000000F8H.7 SFRSYM    DATA     BIT       SPI0CN0_SPIF
      00000094H   SFRSYM    DATA     BYTE      TMR3L
LX51 LINKER/LOCATER V4.66.97.0                                                        02/23/2023  16:00:17  PAGE 80


      000000A8H.7 SFRSYM    DATA     BIT       IE_EA
      000000C3H   SFRSYM    DATA     WORD      PWM
      000000A4H   SFRSYM    DATA     BYTE      TMR4L
      000000D4H   SFRSYM    DATA     BYTE      TMR5L
      000000AFH   SFRSYM    DATA     BYTE      CLKGRP0
      000000C8H.5 SFRSYM    DATA     BIT       TMR2CN0_TF2LEN
      000000F8H.6 SFRSYM    DATA     BIT       SPI0CN0_WCOL
      000000C2H   SFRSYM    DATA     BYTE      PWMCFG0
      000000F8H.2 SFRSYM    DATA     BIT       SPI0CN0_NSSMD0
      000000D0H.7 SFRSYM    DATA     BIT       PSW_CY
      0000009DH   SFRSYM    DATA     BYTE      UART1FCN0
      000000DFH   SFRSYM    DATA     BYTE      SPI0PCF
      000000A3H   SFRSYM    DATA     BYTE      SPI0DAT
      000000C9H   SFRSYM    DATA     BYTE      PWMCFG1
      000000F8H.3 SFRSYM    DATA     BIT       SPI0CN0_NSSMD1
      000000BDH   SFRSYM    DATA     WORD      ADC0
      000000D8H   SFRSYM    DATA     BYTE      UART1FCN1
      000000D1H   SFRSYM    DATA     BYTE      PWMCFG2
      000000E8H.0 SFRSYM    DATA     BIT       CLIF0_C0FIF
      000000DFH   SFRSYM    DATA     BYTE      PWMCFG3
      00000098H.5 SFRSYM    DATA     BIT       TMR4CN0_TF4LEN
      000000E8H.2 SFRSYM    DATA     BIT       CLIF0_C1FIF
      000000D0H   SFRSYM    DATA     BYTE      PSW
      000000F7H   SFRSYM    DATA     BYTE      PCA0PWM
      000000E8H.4 SFRSYM    DATA     BIT       CLIF0_C2FIF
      000000F7H   SFRSYM    DATA     BYTE      SPI0FCT
      000000B6H   SFRSYM    DATA     BYTE      REVID
      000000C0H.5 SFRSYM    DATA     BIT       TMR5CN0_TF5LEN
      000000E8H.6 SFRSYM    DATA     BIT       CLIF0_C3FIF
      000000CCH   SFRSYM    DATA     BYTE      HFO0TRIM0
      000000B7H   SFRSYM    DATA     BYTE      FLKEY

      0100040CH   BLOCK     CODE     ---       LVL=0
      00000022H   SYMBOL    DATA     DWORD     ms_delay
      01000414H   BLOCK     CODE     NEAR LAB  LVL=1
      00000026H   SYMBOL    DATA     DWORD     timer_4_cycles_seen
      0000002AH   SYMBOL    DATA     BYTE      timer_4_previous_value
      0000002BH   SYMBOL    DATA     BYTE      SFRPAGE_save
      ---         BLOCKEND  ---      ---       LVL=1
      0100040CH   LINE      CODE     ---       #11
      01000414H   LINE      CODE     ---       #13
      0100041DH   LINE      CODE     ---       #17
      01000420H   LINE      CODE     ---       #18
      01000423H   LINE      CODE     ---       #20
      01000426H   LINE      CODE     ---       #23
      0100043CH   LINE      CODE     ---       #27
      01000442H   LINE      CODE     ---       #28
      01000445H   LINE      CODE     ---       #29
      0100045AH   LINE      CODE     ---       #30
      0100045CH   LINE      CODE     ---       #33
      0100045FH   LINE      CODE     ---       #34
      ---         BLOCKEND  ---      ---       LVL=0

      ---         MODULE    ---      ---       ?C_INIT
      010002A3H   PUBLIC    CODE     ---       ?C_START

      ---         MODULE    ---      ---       ?C?CLDPTR
      01000176H   PUBLIC    CODE     ---       ?C?CLDPTR

      ---         MODULE    ---      ---       ?C?CLDOPTR
      0100018FH   PUBLIC    CODE     ---       ?C?CLDOPTR

LX51 LINKER/LOCATER V4.66.97.0                                                        02/23/2023  16:00:17  PAGE 81


      ---         MODULE    ---      ---       ?C?CSTPTR
      010001BCH   PUBLIC    CODE     ---       ?C?CSTPTR

      ---         MODULE    ---      ---       ?C?CSTOPTR
      010001CEH   PUBLIC    CODE     ---       ?C?CSTOPTR

      ---         MODULE    ---      ---       ?C?UIDIV
      010001F0H   PUBLIC    CODE     ---       ?C?UIDIV

      ---         MODULE    ---      ---       ?C?ULCMP
      01000245H   PUBLIC    CODE     ---       ?C?ULCMP

      ---         MODULE    ---      ---       ?C?ICALL
      01000256H   PUBLIC    CODE     ---       ?C?ICALL
      0100025AH   PUBLIC    CODE     ---       ?C?ICALL2



*** WARNING L15: MULTIPLE CALL TO FUNCTION
    NAME:    _HDLC_L_CRC_COMPUTATION/HDLC_L
    CALLER1: ?C_C51STARTUP
    CALLER2: UART0_ISR/HDLC_L

Program Size: data=115.1 xdata=16 const=512 code=2068
LX51 RUN COMPLETE.  1 WARNING(S),  0 ERROR(S)
